
QUTMS_ShutdownBoard.elf:     file format elf32-avr

Sections:
Idx Name          Size      VMA       LMA       File off  Algn
  0 .data         00000008  00800100  0000192a  000019be  2**0
                  CONTENTS, ALLOC, LOAD, DATA
  1 .text         0000192a  00000000  00000000  00000094  2**1
                  CONTENTS, ALLOC, LOAD, READONLY, CODE
  2 .bss          0000007a  00800108  00800108  000019c6  2**0
                  ALLOC
  3 .comment      00000030  00000000  00000000  000019c6  2**0
                  CONTENTS, READONLY
  4 .note.gnu.avr.deviceinfo 00000040  00000000  00000000  000019f8  2**2
                  CONTENTS, READONLY
  5 .debug_aranges 00000298  00000000  00000000  00001a38  2**3
                  CONTENTS, READONLY, DEBUGGING
  6 .debug_info   00003652  00000000  00000000  00001cd0  2**0
                  CONTENTS, READONLY, DEBUGGING
  7 .debug_abbrev 000011b2  00000000  00000000  00005322  2**0
                  CONTENTS, READONLY, DEBUGGING
  8 .debug_line   00001aec  00000000  00000000  000064d4  2**0
                  CONTENTS, READONLY, DEBUGGING
  9 .debug_frame  00000790  00000000  00000000  00007fc0  2**2
                  CONTENTS, READONLY, DEBUGGING
 10 .debug_str    00000c49  00000000  00000000  00008750  2**0
                  CONTENTS, READONLY, DEBUGGING
 11 .debug_loc    0000227e  00000000  00000000  00009399  2**0
                  CONTENTS, READONLY, DEBUGGING
 12 .debug_ranges 00000278  00000000  00000000  0000b617  2**0
                  CONTENTS, READONLY, DEBUGGING

Disassembly of section .text:

00000000 <__vectors>:
       0:	0c 94 3e 00 	jmp	0x7c	; 0x7c <__ctors_end>
       4:	0c 94 5b 00 	jmp	0xb6	; 0xb6 <__bad_interrupt>
       8:	0c 94 5b 00 	jmp	0xb6	; 0xb6 <__bad_interrupt>
       c:	0c 94 5b 00 	jmp	0xb6	; 0xb6 <__bad_interrupt>
      10:	0c 94 5b 00 	jmp	0xb6	; 0xb6 <__bad_interrupt>
      14:	0c 94 5b 00 	jmp	0xb6	; 0xb6 <__bad_interrupt>
      18:	0c 94 5b 00 	jmp	0xb6	; 0xb6 <__bad_interrupt>
      1c:	0c 94 5b 00 	jmp	0xb6	; 0xb6 <__bad_interrupt>
      20:	0c 94 5b 00 	jmp	0xb6	; 0xb6 <__bad_interrupt>
      24:	0c 94 5b 00 	jmp	0xb6	; 0xb6 <__bad_interrupt>
      28:	0c 94 5b 00 	jmp	0xb6	; 0xb6 <__bad_interrupt>
      2c:	0c 94 5b 00 	jmp	0xb6	; 0xb6 <__bad_interrupt>
      30:	0c 94 5b 00 	jmp	0xb6	; 0xb6 <__bad_interrupt>
      34:	0c 94 5b 00 	jmp	0xb6	; 0xb6 <__bad_interrupt>
      38:	0c 94 5b 00 	jmp	0xb6	; 0xb6 <__bad_interrupt>
      3c:	0c 94 5b 00 	jmp	0xb6	; 0xb6 <__bad_interrupt>
      40:	0c 94 5b 00 	jmp	0xb6	; 0xb6 <__bad_interrupt>
      44:	0c 94 e1 08 	jmp	0x11c2	; 0x11c2 <__vector_17>
      48:	0c 94 4c 08 	jmp	0x1098	; 0x1098 <__vector_18>
      4c:	0c 94 5b 00 	jmp	0xb6	; 0xb6 <__bad_interrupt>
      50:	0c 94 5b 00 	jmp	0xb6	; 0xb6 <__bad_interrupt>
      54:	0c 94 5b 00 	jmp	0xb6	; 0xb6 <__bad_interrupt>
      58:	0c 94 22 08 	jmp	0x1044	; 0x1044 <__vector_22>
      5c:	0c 94 5b 00 	jmp	0xb6	; 0xb6 <__bad_interrupt>
      60:	0c 94 5b 00 	jmp	0xb6	; 0xb6 <__bad_interrupt>
      64:	0c 94 5b 00 	jmp	0xb6	; 0xb6 <__bad_interrupt>
      68:	0c 94 5b 00 	jmp	0xb6	; 0xb6 <__bad_interrupt>
      6c:	0c 94 5b 00 	jmp	0xb6	; 0xb6 <__bad_interrupt>
      70:	0c 94 5b 00 	jmp	0xb6	; 0xb6 <__bad_interrupt>
      74:	0c 94 5b 00 	jmp	0xb6	; 0xb6 <__bad_interrupt>
      78:	0c 94 5b 00 	jmp	0xb6	; 0xb6 <__bad_interrupt>

0000007c <__ctors_end>:
      7c:	11 24       	eor	r1, r1
      7e:	1f be       	out	0x3f, r1	; 63
      80:	cf ef       	ldi	r28, 0xFF	; 255
      82:	d0 e1       	ldi	r29, 0x10	; 16
      84:	de bf       	out	0x3e, r29	; 62
      86:	cd bf       	out	0x3d, r28	; 61

00000088 <__do_copy_data>:
      88:	11 e0       	ldi	r17, 0x01	; 1
      8a:	a0 e0       	ldi	r26, 0x00	; 0
      8c:	b1 e0       	ldi	r27, 0x01	; 1
      8e:	ea e2       	ldi	r30, 0x2A	; 42
      90:	f9 e1       	ldi	r31, 0x19	; 25
      92:	02 c0       	rjmp	.+4      	; 0x98 <__do_copy_data+0x10>
      94:	05 90       	lpm	r0, Z+
      96:	0d 92       	st	X+, r0
      98:	a8 30       	cpi	r26, 0x08	; 8
      9a:	b1 07       	cpc	r27, r17
      9c:	d9 f7       	brne	.-10     	; 0x94 <__do_copy_data+0xc>

0000009e <__do_clear_bss>:
      9e:	21 e0       	ldi	r18, 0x01	; 1
      a0:	a8 e0       	ldi	r26, 0x08	; 8
      a2:	b1 e0       	ldi	r27, 0x01	; 1
      a4:	01 c0       	rjmp	.+2      	; 0xa8 <.do_clear_bss_start>

000000a6 <.do_clear_bss_loop>:
      a6:	1d 92       	st	X+, r1

000000a8 <.do_clear_bss_start>:
      a8:	a2 38       	cpi	r26, 0x82	; 130
      aa:	b2 07       	cpc	r27, r18
      ac:	e1 f7       	brne	.-8      	; 0xa6 <.do_clear_bss_loop>
      ae:	0e 94 64 06 	call	0xcc8	; 0xcc8 <main>
      b2:	0c 94 93 0c 	jmp	0x1926	; 0x1926 <_exit>

000000b6 <__bad_interrupt>:
      b6:	0c 94 00 00 	jmp	0	; 0x0 <__vectors>

000000ba <CAN_init>:
	if(mob>=0)CAN_TXMOB(mob, 2, tData, 0, 20); //transmit registration and do not wait for finish
	return mob;
}

uint8_t CAN_init()
{
      ba:	ef 92       	push	r14
      bc:	ff 92       	push	r15
      be:	0f 93       	push	r16
      c0:	1f 93       	push	r17
      c2:	cf 93       	push	r28
      c4:	df 93       	push	r29
	
	CANGCON = (1 << SWRES);     // Reset the CAN controller hardware and general registers.
      c6:	81 e0       	ldi	r24, 0x01	; 1
      c8:	80 93 d8 00 	sts	0x00D8, r24	; 0x8000d8 <__TEXT_REGION_LENGTH__+0x7e00d8>
	for(uint8_t mobCount = 0; mobCount <= 5; mobCount++)
      cc:	80 e0       	ldi	r24, 0x00	; 0
	{
		CANPAGE = (mobCount << 4);		//select the message object to modify
      ce:	0d ee       	ldi	r16, 0xED	; 237
      d0:	10 e0       	ldi	r17, 0x00	; 0
		CANCDMOB = 0;					//make sure we do not do any actions on this mob.
      d2:	6f ee       	ldi	r22, 0xEF	; 239
      d4:	70 e0       	ldi	r23, 0x00	; 0
		CANSTMOB = 0;					//make sure no interrupts are set.
      d6:	4e ee       	ldi	r20, 0xEE	; 238
      d8:	50 e0       	ldi	r21, 0x00	; 0
		CANIDM1 = 0;
      da:	27 ef       	ldi	r18, 0xF7	; 247
      dc:	30 e0       	ldi	r19, 0x00	; 0
		CANIDM2 = 0;
      de:	c6 ef       	ldi	r28, 0xF6	; 246
      e0:	d0 e0       	ldi	r29, 0x00	; 0
		CANIDM3 = 0;
      e2:	a5 ef       	ldi	r26, 0xF5	; 245
      e4:	b0 e0       	ldi	r27, 0x00	; 0
		CANIDM4 = 0;					//these registers are used to control the mask which filters incoming messages
      e6:	0f 2e       	mov	r0, r31
      e8:	f4 ef       	ldi	r31, 0xF4	; 244
      ea:	ef 2e       	mov	r14, r31
      ec:	f1 2c       	mov	r15, r1
      ee:	f0 2d       	mov	r31, r0
{
	
	CANGCON = (1 << SWRES);     // Reset the CAN controller hardware and general registers.
	for(uint8_t mobCount = 0; mobCount <= 5; mobCount++)
	{
		CANPAGE = (mobCount << 4);		//select the message object to modify
      f0:	98 2f       	mov	r25, r24
      f2:	92 95       	swap	r25
      f4:	90 7f       	andi	r25, 0xF0	; 240
      f6:	f8 01       	movw	r30, r16
      f8:	90 83       	st	Z, r25
		CANCDMOB = 0;					//make sure we do not do any actions on this mob.
      fa:	fb 01       	movw	r30, r22
      fc:	10 82       	st	Z, r1
		CANSTMOB = 0;					//make sure no interrupts are set.
      fe:	fa 01       	movw	r30, r20
     100:	10 82       	st	Z, r1
		CANIDM1 = 0;
     102:	f9 01       	movw	r30, r18
     104:	10 82       	st	Z, r1
		CANIDM2 = 0;
     106:	18 82       	st	Y, r1
		CANIDM3 = 0;
     108:	1c 92       	st	X, r1
		CANIDM4 = 0;					//these registers are used to control the mask which filters incoming messages
     10a:	f7 01       	movw	r30, r14
     10c:	10 82       	st	Z, r1

uint8_t CAN_init()
{
	
	CANGCON = (1 << SWRES);     // Reset the CAN controller hardware and general registers.
	for(uint8_t mobCount = 0; mobCount <= 5; mobCount++)
     10e:	8f 5f       	subi	r24, 0xFF	; 255
     110:	86 30       	cpi	r24, 0x06	; 6
     112:	71 f7       	brne	.-36     	; 0xf0 <CAN_init+0x36>
		CANIDM1 = 0;
		CANIDM2 = 0;
		CANIDM3 = 0;
		CANIDM4 = 0;					//these registers are used to control the mask which filters incoming messages
	}
	CANBT1 = 0x0E;		//these registers control speed of communication
     114:	8e e0       	ldi	r24, 0x0E	; 14
     116:	80 93 e2 00 	sts	0x00E2, r24	; 0x8000e2 <__TEXT_REGION_LENGTH__+0x7e00e2>
	CANBT2 = 0x04;		//currently with these values, it is 250kbps
     11a:	84 e0       	ldi	r24, 0x04	; 4
     11c:	80 93 e3 00 	sts	0x00E3, r24	; 0x8000e3 <__TEXT_REGION_LENGTH__+0x7e00e3>
	CANBT3 = 0x13;		//with 8 TQ per bit.
     120:	83 e1       	ldi	r24, 0x13	; 19
     122:	80 93 e4 00 	sts	0x00E4, r24	; 0x8000e4 <__TEXT_REGION_LENGTH__+0x7e00e4>

	CANIE2 = (1 << IEMOB4)|(1 << IEMOB5);		//enable interrupts on MOB 4 and 5 for receiving
     126:	80 e3       	ldi	r24, 0x30	; 48
     128:	80 93 de 00 	sts	0x00DE, r24	; 0x8000de <__TEXT_REGION_LENGTH__+0x7e00de>
	CANGIE = (1 << ENRX)|(1 << ENIT);		//enable receive interrupt; enable global CAN interrupt (all interrupts)
     12c:	80 ea       	ldi	r24, 0xA0	; 160
     12e:	80 93 db 00 	sts	0x00DB, r24	; 0x8000db <__TEXT_REGION_LENGTH__+0x7e00db>
	//put other initialisation functions here.

	CANGCON = (1 << ENASTB);    // Enable the CAN.
     132:	82 e0       	ldi	r24, 0x02	; 2
     134:	80 93 d8 00 	sts	0x00D8, r24	; 0x8000d8 <__TEXT_REGION_LENGTH__+0x7e00d8>
	#else
		//round up by default
		__ticks_dc = (uint32_t)(ceil(fabs(__tmp)));
	#endif

	__builtin_avr_delay_cycles(__ticks_dc);
     138:	ff ef       	ldi	r31, 0xFF	; 255
     13a:	20 e7       	ldi	r18, 0x70	; 112
     13c:	82 e0       	ldi	r24, 0x02	; 2
     13e:	f1 50       	subi	r31, 0x01	; 1
     140:	20 40       	sbci	r18, 0x00	; 0
     142:	80 40       	sbci	r24, 0x00	; 0
     144:	e1 f7       	brne	.-8      	; 0x13e <CAN_init+0x84>
     146:	00 c0       	rjmp	.+0      	; 0x148 <CAN_init+0x8e>
     148:	00 00       	nop
	_delay_ms(50);
	if(!(CANGSTA & (1<<ENFG)))return 1;
     14a:	80 91 d9 00 	lds	r24, 0x00D9	; 0x8000d9 <__TEXT_REGION_LENGTH__+0x7e00d9>
     14e:	82 fb       	bst	r24, 2
     150:	88 27       	eor	r24, r24
     152:	80 f9       	bld	r24, 0
	return 0;
}
     154:	91 e0       	ldi	r25, 0x01	; 1
     156:	89 27       	eor	r24, r25
     158:	df 91       	pop	r29
     15a:	cf 91       	pop	r28
     15c:	1f 91       	pop	r17
     15e:	0f 91       	pop	r16
     160:	ff 90       	pop	r15
     162:	ef 90       	pop	r14
     164:	08 95       	ret

00000166 <CAN_RXInit>:

void CAN_RXInit(int8_t mob, uint8_t numBytes, uint32_t IDmsk, uint32_t ID)
{
     166:	ef 92       	push	r14
     168:	ff 92       	push	r15
     16a:	0f 93       	push	r16
     16c:	1f 93       	push	r17
	CANPAGE = ( mob << 4);		//use the mobth mob for receiving.
     16e:	82 95       	swap	r24
     170:	80 7f       	andi	r24, 0xF0	; 240
     172:	80 93 ed 00 	sts	0x00ED, r24	; 0x8000ed <__TEXT_REGION_LENGTH__+0x7e00ed>
	//IDEMSK is sent with the CAN packet, we choose to not require that it be set, and instead focus on ID match
	CANIDM4 = (IDmsk<<03) & 0xF8;	//shifts the value sets RTRMSK to zero and IDEMSK to 0
     176:	82 2f       	mov	r24, r18
     178:	88 0f       	add	r24, r24
     17a:	88 0f       	add	r24, r24
     17c:	88 0f       	add	r24, r24
     17e:	80 93 f4 00 	sts	0x00F4, r24	; 0x8000f4 <__TEXT_REGION_LENGTH__+0x7e00f4>
	CANIDM3 = (IDmsk>>05) & 0xFF;
     182:	da 01       	movw	r26, r20
     184:	c9 01       	movw	r24, r18
     186:	68 94       	set
     188:	14 f8       	bld	r1, 4
     18a:	b6 95       	lsr	r27
     18c:	a7 95       	ror	r26
     18e:	97 95       	ror	r25
     190:	87 95       	ror	r24
     192:	16 94       	lsr	r1
     194:	d1 f7       	brne	.-12     	; 0x18a <CAN_RXInit+0x24>
     196:	80 93 f5 00 	sts	0x00F5, r24	; 0x8000f5 <__TEXT_REGION_LENGTH__+0x7e00f5>
	CANIDM2 = (IDmsk>>13) & 0xFF;	
     19a:	da 01       	movw	r26, r20
     19c:	c9 01       	movw	r24, r18
     19e:	07 2e       	mov	r0, r23
     1a0:	7d e0       	ldi	r23, 0x0D	; 13
     1a2:	b6 95       	lsr	r27
     1a4:	a7 95       	ror	r26
     1a6:	97 95       	ror	r25
     1a8:	87 95       	ror	r24
     1aa:	7a 95       	dec	r23
     1ac:	d1 f7       	brne	.-12     	; 0x1a2 <CAN_RXInit+0x3c>
     1ae:	70 2d       	mov	r23, r0
     1b0:	80 93 f6 00 	sts	0x00F6, r24	; 0x8000f6 <__TEXT_REGION_LENGTH__+0x7e00f6>
	CANIDM1 = (IDmsk>>21) & 0xFF;
     1b4:	da 01       	movw	r26, r20
     1b6:	c9 01       	movw	r24, r18
     1b8:	07 2e       	mov	r0, r23
     1ba:	75 e1       	ldi	r23, 0x15	; 21
     1bc:	b6 95       	lsr	r27
     1be:	a7 95       	ror	r26
     1c0:	97 95       	ror	r25
     1c2:	87 95       	ror	r24
     1c4:	7a 95       	dec	r23
     1c6:	d1 f7       	brne	.-12     	; 0x1bc <CAN_RXInit+0x56>
     1c8:	70 2d       	mov	r23, r0
     1ca:	80 93 f7 00 	sts	0x00F7, r24	; 0x8000f7 <__TEXT_REGION_LENGTH__+0x7e00f7>
	
	CANIDT4 = (ID<<03) & 0xF8;	//shifts the value sets RTRTAG, RB1TAG and RB0TAG to 0
     1ce:	8e 2d       	mov	r24, r14
     1d0:	88 0f       	add	r24, r24
     1d2:	88 0f       	add	r24, r24
     1d4:	88 0f       	add	r24, r24
     1d6:	80 93 f0 00 	sts	0x00F0, r24	; 0x8000f0 <__TEXT_REGION_LENGTH__+0x7e00f0>
	CANIDT3 = (ID>>05) & 0xFF;
     1da:	d8 01       	movw	r26, r16
     1dc:	c7 01       	movw	r24, r14
     1de:	68 94       	set
     1e0:	14 f8       	bld	r1, 4
     1e2:	b6 95       	lsr	r27
     1e4:	a7 95       	ror	r26
     1e6:	97 95       	ror	r25
     1e8:	87 95       	ror	r24
     1ea:	16 94       	lsr	r1
     1ec:	d1 f7       	brne	.-12     	; 0x1e2 <CAN_RXInit+0x7c>
     1ee:	80 93 f1 00 	sts	0x00F1, r24	; 0x8000f1 <__TEXT_REGION_LENGTH__+0x7e00f1>
	CANIDT2 = (ID>>13) & 0xFF;
     1f2:	d8 01       	movw	r26, r16
     1f4:	c7 01       	movw	r24, r14
     1f6:	07 2e       	mov	r0, r23
     1f8:	7d e0       	ldi	r23, 0x0D	; 13
     1fa:	b6 95       	lsr	r27
     1fc:	a7 95       	ror	r26
     1fe:	97 95       	ror	r25
     200:	87 95       	ror	r24
     202:	7a 95       	dec	r23
     204:	d1 f7       	brne	.-12     	; 0x1fa <CAN_RXInit+0x94>
     206:	70 2d       	mov	r23, r0
     208:	80 93 f2 00 	sts	0x00F2, r24	; 0x8000f2 <__TEXT_REGION_LENGTH__+0x7e00f2>
	CANIDT1 = (ID>>21) & 0xFF;
     20c:	d8 01       	movw	r26, r16
     20e:	c7 01       	movw	r24, r14
     210:	07 2e       	mov	r0, r23
     212:	75 e1       	ldi	r23, 0x15	; 21
     214:	b6 95       	lsr	r27
     216:	a7 95       	ror	r26
     218:	97 95       	ror	r25
     21a:	87 95       	ror	r24
     21c:	7a 95       	dec	r23
     21e:	d1 f7       	brne	.-12     	; 0x214 <CAN_RXInit+0xae>
     220:	70 2d       	mov	r23, r0
     222:	80 93 f3 00 	sts	0x00F3, r24	; 0x8000f3 <__TEXT_REGION_LENGTH__+0x7e00f3>
	
	CANCDMOB = (numBytes << DLC0)|(2<<CONMOB0)|(1 << IDE);		//we are expecting only numBytes bytes; also set the mob to receive mode.
     226:	60 69       	ori	r22, 0x90	; 144
     228:	60 93 ef 00 	sts	0x00EF, r22	; 0x8000ef <__TEXT_REGION_LENGTH__+0x7e00ef>
}
     22c:	1f 91       	pop	r17
     22e:	0f 91       	pop	r16
     230:	ff 90       	pop	r15
     232:	ef 90       	pop	r14
     234:	08 95       	ret

00000236 <CAN_TXMOB>:

void CAN_TXMOB(int8_t mob, uint8_t numBytes, uint8_t * data, uint32_t ID, uint8_t ms_loop_until_TXOK)
{
     236:	ef 92       	push	r14
     238:	0f 93       	push	r16
     23a:	1f 93       	push	r17
	CANPAGE = ( mob << 4);		//use the mobth mob
     23c:	82 95       	swap	r24
     23e:	80 7f       	andi	r24, 0xF0	; 240
     240:	80 93 ed 00 	sts	0x00ED, r24	; 0x8000ed <__TEXT_REGION_LENGTH__+0x7e00ed>
	//IDEMSK is sent with the CAN packet, we choose to not set it, and instead the receiver will focus on ID match
	CANSTMOB &= ~(1<<TXOK);
     244:	ee ee       	ldi	r30, 0xEE	; 238
     246:	f0 e0       	ldi	r31, 0x00	; 0
     248:	80 81       	ld	r24, Z
     24a:	8f 7b       	andi	r24, 0xBF	; 191
     24c:	80 83       	st	Z, r24
	CANIDM4 = 0;
     24e:	10 92 f4 00 	sts	0x00F4, r1	; 0x8000f4 <__TEXT_REGION_LENGTH__+0x7e00f4>
	
	CANIDT4 = (ID<<03) & 0xF8;	//shifts the value sets RTRTAG, RB1TAG and RB0TAG
     252:	80 2f       	mov	r24, r16
     254:	88 0f       	add	r24, r24
     256:	88 0f       	add	r24, r24
     258:	88 0f       	add	r24, r24
     25a:	80 93 f0 00 	sts	0x00F0, r24	; 0x8000f0 <__TEXT_REGION_LENGTH__+0x7e00f0>
	CANIDT3 = (ID>>05) & 0xFF;
     25e:	d9 01       	movw	r26, r18
     260:	c8 01       	movw	r24, r16
     262:	68 94       	set
     264:	14 f8       	bld	r1, 4
     266:	b6 95       	lsr	r27
     268:	a7 95       	ror	r26
     26a:	97 95       	ror	r25
     26c:	87 95       	ror	r24
     26e:	16 94       	lsr	r1
     270:	d1 f7       	brne	.-12     	; 0x266 <CAN_TXMOB+0x30>
     272:	80 93 f1 00 	sts	0x00F1, r24	; 0x8000f1 <__TEXT_REGION_LENGTH__+0x7e00f1>
	CANIDT2 = (ID>>13) & 0xFF;
     276:	d9 01       	movw	r26, r18
     278:	c8 01       	movw	r24, r16
     27a:	07 2e       	mov	r0, r23
     27c:	7d e0       	ldi	r23, 0x0D	; 13
     27e:	b6 95       	lsr	r27
     280:	a7 95       	ror	r26
     282:	97 95       	ror	r25
     284:	87 95       	ror	r24
     286:	7a 95       	dec	r23
     288:	d1 f7       	brne	.-12     	; 0x27e <CAN_TXMOB+0x48>
     28a:	70 2d       	mov	r23, r0
     28c:	80 93 f2 00 	sts	0x00F2, r24	; 0x8000f2 <__TEXT_REGION_LENGTH__+0x7e00f2>
	CANIDT1 = (ID>>21) & 0xFF;
     290:	0f 2e       	mov	r0, r31
     292:	f5 e1       	ldi	r31, 0x15	; 21
     294:	36 95       	lsr	r19
     296:	27 95       	ror	r18
     298:	17 95       	ror	r17
     29a:	07 95       	ror	r16
     29c:	fa 95       	dec	r31
     29e:	d1 f7       	brne	.-12     	; 0x294 <CAN_TXMOB+0x5e>
     2a0:	f0 2d       	mov	r31, r0
     2a2:	00 93 f3 00 	sts	0x00F3, r16	; 0x8000f3 <__TEXT_REGION_LENGTH__+0x7e00f3>
	for(uint8_t i = 0; i < numBytes; i++)
     2a6:	66 23       	and	r22, r22
     2a8:	71 f0       	breq	.+28     	; 0x2c6 <CAN_TXMOB+0x90>
     2aa:	fa 01       	movw	r30, r20
     2ac:	8f ef       	ldi	r24, 0xFF	; 255
     2ae:	86 0f       	add	r24, r22
     2b0:	90 e0       	ldi	r25, 0x00	; 0
     2b2:	01 96       	adiw	r24, 0x01	; 1
     2b4:	48 0f       	add	r20, r24
     2b6:	59 1f       	adc	r21, r25
	{
		CANMSG = data[i];
     2b8:	aa ef       	ldi	r26, 0xFA	; 250
     2ba:	b0 e0       	ldi	r27, 0x00	; 0
     2bc:	81 91       	ld	r24, Z+
     2be:	8c 93       	st	X, r24
	
	CANIDT4 = (ID<<03) & 0xF8;	//shifts the value sets RTRTAG, RB1TAG and RB0TAG
	CANIDT3 = (ID>>05) & 0xFF;
	CANIDT2 = (ID>>13) & 0xFF;
	CANIDT1 = (ID>>21) & 0xFF;
	for(uint8_t i = 0; i < numBytes; i++)
     2c0:	e4 17       	cp	r30, r20
     2c2:	f5 07       	cpc	r31, r21
     2c4:	d9 f7       	brne	.-10     	; 0x2bc <CAN_TXMOB+0x86>
	{
		CANMSG = data[i];
	}
	CANCDMOB = (numBytes << DLC0)|(1<<CONMOB0)|(1 << IDE);		//we are expecting only numBytes bytes; also set the mob to receive mode.
     2c6:	60 65       	ori	r22, 0x50	; 80
     2c8:	60 93 ef 00 	sts	0x00EF, r22	; 0x8000ef <__TEXT_REGION_LENGTH__+0x7e00ef>

	for(uint8_t i = 0; i < ms_loop_until_TXOK; i++)	//loop until specified wait time is up
     2cc:	ee 20       	and	r14, r14
     2ce:	a1 f0       	breq	.+40     	; 0x2f8 <CAN_TXMOB+0xc2>
	{
		if((CANSTMOB & (1 << TXOK)))break;		//check for transmission complete
     2d0:	80 91 ee 00 	lds	r24, 0x00EE	; 0x8000ee <__TEXT_REGION_LENGTH__+0x7e00ee>
     2d4:	86 fd       	sbrc	r24, 6
     2d6:	10 c0       	rjmp	.+32     	; 0x2f8 <CAN_TXMOB+0xc2>
     2d8:	80 e0       	ldi	r24, 0x00	; 0
     2da:	ee ee       	ldi	r30, 0xEE	; 238
     2dc:	f0 e0       	ldi	r31, 0x00	; 0
     2de:	03 c0       	rjmp	.+6      	; 0x2e6 <CAN_TXMOB+0xb0>
     2e0:	90 81       	ld	r25, Z
     2e2:	96 fd       	sbrc	r25, 6
     2e4:	09 c0       	rjmp	.+18     	; 0x2f8 <CAN_TXMOB+0xc2>
     2e6:	af e9       	ldi	r26, 0x9F	; 159
     2e8:	bf e0       	ldi	r27, 0x0F	; 15
     2ea:	11 97       	sbiw	r26, 0x01	; 1
     2ec:	f1 f7       	brne	.-4      	; 0x2ea <CAN_TXMOB+0xb4>
     2ee:	00 c0       	rjmp	.+0      	; 0x2f0 <CAN_TXMOB+0xba>
     2f0:	00 00       	nop
	{
		CANMSG = data[i];
	}
	CANCDMOB = (numBytes << DLC0)|(1<<CONMOB0)|(1 << IDE);		//we are expecting only numBytes bytes; also set the mob to receive mode.

	for(uint8_t i = 0; i < ms_loop_until_TXOK; i++)	//loop until specified wait time is up
     2f2:	8f 5f       	subi	r24, 0xFF	; 255
     2f4:	e8 12       	cpse	r14, r24
     2f6:	f4 cf       	rjmp	.-24     	; 0x2e0 <CAN_TXMOB+0xaa>
	{
		if((CANSTMOB & (1 << TXOK)))break;		//check for transmission complete
		_delay_ms(1);								//do nothing for 1 ms
	}
}
     2f8:	1f 91       	pop	r17
     2fa:	0f 91       	pop	r16
     2fc:	ef 90       	pop	r14
     2fe:	08 95       	ret

00000300 <CAN_findFreeTXMOB>:

int8_t CAN_findFreeTXMOB()
{
     300:	cf 93       	push	r28
     302:	df 93       	push	r29
	for(uint8_t i = 0; i < 4; i++) //tx mobs are 0 to 3 (<4)
	{
		CANPAGE = ( i << 4);		//use the mobth mob
     304:	10 92 ed 00 	sts	0x00ED, r1	; 0x8000ed <__TEXT_REGION_LENGTH__+0x7e00ed>
		if((CANSTMOB & ((1<<TXOK)|(1<<BERR)|(1<<SERR)|(1<<FERR)|(1<<CERR))) || !(CANCDMOB & (1<<CONMOB0))) //if the transmission is complete or the mob has not been setup yet
     308:	80 91 ee 00 	lds	r24, 0x00EE	; 0x8000ee <__TEXT_REGION_LENGTH__+0x7e00ee>
     30c:	8e 75       	andi	r24, 0x5E	; 94
     30e:	b1 f4       	brne	.+44     	; 0x33c <CAN_findFreeTXMOB+0x3c>
     310:	80 91 ef 00 	lds	r24, 0x00EF	; 0x8000ef <__TEXT_REGION_LENGTH__+0x7e00ef>
     314:	86 ff       	sbrs	r24, 6
     316:	14 c0       	rjmp	.+40     	; 0x340 <CAN_findFreeTXMOB+0x40>
     318:	81 e0       	ldi	r24, 0x01	; 1

int8_t CAN_findFreeTXMOB()
{
	for(uint8_t i = 0; i < 4; i++) //tx mobs are 0 to 3 (<4)
	{
		CANPAGE = ( i << 4);		//use the mobth mob
     31a:	ad ee       	ldi	r26, 0xED	; 237
     31c:	b0 e0       	ldi	r27, 0x00	; 0
		if((CANSTMOB & ((1<<TXOK)|(1<<BERR)|(1<<SERR)|(1<<FERR)|(1<<CERR))) || !(CANCDMOB & (1<<CONMOB0))) //if the transmission is complete or the mob has not been setup yet
     31e:	ee ee       	ldi	r30, 0xEE	; 238
     320:	f0 e0       	ldi	r31, 0x00	; 0
     322:	cf ee       	ldi	r28, 0xEF	; 239
     324:	d0 e0       	ldi	r29, 0x00	; 0

int8_t CAN_findFreeTXMOB()
{
	for(uint8_t i = 0; i < 4; i++) //tx mobs are 0 to 3 (<4)
	{
		CANPAGE = ( i << 4);		//use the mobth mob
     326:	98 2f       	mov	r25, r24
     328:	92 95       	swap	r25
     32a:	90 7f       	andi	r25, 0xF0	; 240
     32c:	9c 93       	st	X, r25
		if((CANSTMOB & ((1<<TXOK)|(1<<BERR)|(1<<SERR)|(1<<FERR)|(1<<CERR))) || !(CANCDMOB & (1<<CONMOB0))) //if the transmission is complete or the mob has not been setup yet
     32e:	90 81       	ld	r25, Z
     330:	9e 75       	andi	r25, 0x5E	; 94
     332:	61 f4       	brne	.+24     	; 0x34c <CAN_findFreeTXMOB+0x4c>
     334:	98 81       	ld	r25, Y
     336:	96 fd       	sbrc	r25, 6
     338:	05 c0       	rjmp	.+10     	; 0x344 <CAN_findFreeTXMOB+0x44>
     33a:	08 c0       	rjmp	.+16     	; 0x34c <CAN_findFreeTXMOB+0x4c>
	}
}

int8_t CAN_findFreeTXMOB()
{
	for(uint8_t i = 0; i < 4; i++) //tx mobs are 0 to 3 (<4)
     33c:	80 e0       	ldi	r24, 0x00	; 0
     33e:	06 c0       	rjmp	.+12     	; 0x34c <CAN_findFreeTXMOB+0x4c>
     340:	80 e0       	ldi	r24, 0x00	; 0
	{
		CANPAGE = ( i << 4);		//use the mobth mob
		if((CANSTMOB & ((1<<TXOK)|(1<<BERR)|(1<<SERR)|(1<<FERR)|(1<<CERR))) || !(CANCDMOB & (1<<CONMOB0))) //if the transmission is complete or the mob has not been setup yet
		{
			return i;			//send back the free mob
     342:	04 c0       	rjmp	.+8      	; 0x34c <CAN_findFreeTXMOB+0x4c>
	}
}

int8_t CAN_findFreeTXMOB()
{
	for(uint8_t i = 0; i < 4; i++) //tx mobs are 0 to 3 (<4)
     344:	8f 5f       	subi	r24, 0xFF	; 255
     346:	84 30       	cpi	r24, 0x04	; 4
     348:	71 f7       	brne	.-36     	; 0x326 <CAN_findFreeTXMOB+0x26>
		if((CANSTMOB & ((1<<TXOK)|(1<<BERR)|(1<<SERR)|(1<<FERR)|(1<<CERR))) || !(CANCDMOB & (1<<CONMOB0))) //if the transmission is complete or the mob has not been setup yet
		{
			return i;			//send back the free mob
		}
	}
	return -1;		//otherwise, none are free
     34a:	8f ef       	ldi	r24, 0xFF	; 255
     34c:	df 91       	pop	r29
     34e:	cf 91       	pop	r28
     350:	08 95       	ret

00000352 <SHUTDOWN_eeprom_read>:
{
	CMURxPacketCount= 0;
	PORTC &= ~(1<<PINC1);

	_delay_ms(1);
	PORTC |= (1<<PINC1);
     352:	f9 99       	sbic	0x1f, 1	; 31
     354:	fe cf       	rjmp	.-4      	; 0x352 <SHUTDOWN_eeprom_read>
     356:	0e 94 6a 0c 	call	0x18d4	; 0x18d4 <eeprom_read_word>
     35a:	08 95       	ret

0000035c <SHUTDOWN_eeprom_write>:
     35c:	f9 99       	sbic	0x1f, 1	; 31
     35e:	fe cf       	rjmp	.-4      	; 0x35c <SHUTDOWN_eeprom_write>
     360:	0e 94 70 0c 	call	0x18e0	; 0x18e0 <eeprom_write_word>
     364:	08 95       	ret

00000366 <Parameters_init>:
     366:	80 e0       	ldi	r24, 0x00	; 0
     368:	90 e0       	ldi	r25, 0x00	; 0
     36a:	0e 94 a9 01 	call	0x352	; 0x352 <SHUTDOWN_eeprom_read>
     36e:	90 93 76 01 	sts	0x0176, r25	; 0x800176 <deviceID+0x1>
     372:	80 93 75 01 	sts	0x0175, r24	; 0x800175 <deviceID>
     376:	82 e0       	ldi	r24, 0x02	; 2
     378:	90 e0       	ldi	r25, 0x00	; 0
     37a:	0e 94 a9 01 	call	0x352	; 0x352 <SHUTDOWN_eeprom_read>
     37e:	90 93 78 01 	sts	0x0178, r25	; 0x800178 <fw_version+0x1>
     382:	80 93 77 01 	sts	0x0177, r24	; 0x800177 <fw_version>
     386:	08 95       	ret

00000388 <PCINT_init>:
     388:	81 e0       	ldi	r24, 0x01	; 1
     38a:	80 93 68 00 	sts	0x0068, r24	; 0x800068 <__TEXT_REGION_LENGTH__+0x7e0068>
     38e:	60 e0       	ldi	r22, 0x00	; 0
     390:	8c e2       	ldi	r24, 0x2C	; 44
     392:	0e 94 46 09 	call	0x128c	; 0x128c <MCP2515_reg_write>
     396:	88 e1       	ldi	r24, 0x18	; 24
     398:	80 93 6a 00 	sts	0x006A, r24	; 0x80006a <__TEXT_REGION_LENGTH__+0x7e006a>
     39c:	08 95       	ret

0000039e <init_cmuData>:
     39e:	dc 01       	movw	r26, r24
     3a0:	8a 59       	subi	r24, 0x9A	; 154
     3a2:	9f 4f       	sbci	r25, 0xFF	; 255
     3a4:	1c 92       	st	X, r1
     3a6:	11 96       	adiw	r26, 0x01	; 1
     3a8:	1c 92       	st	X, r1
     3aa:	11 97       	sbiw	r26, 0x01	; 1
     3ac:	fd 01       	movw	r30, r26
     3ae:	32 96       	adiw	r30, 0x02	; 2
     3b0:	9d 01       	movw	r18, r26
     3b2:	2e 5e       	subi	r18, 0xEE	; 238
     3b4:	3f 4f       	sbci	r19, 0xFF	; 255
     3b6:	11 8a       	std	Z+17, r1	; 0x11
     3b8:	10 8a       	std	Z+16, r1	; 0x10
     3ba:	11 92       	st	Z+, r1
     3bc:	11 92       	st	Z+, r1
     3be:	e2 17       	cp	r30, r18
     3c0:	f3 07       	cpc	r31, r19
     3c2:	c9 f7       	brne	.-14     	; 0x3b6 <init_cmuData+0x18>
     3c4:	92 96       	adiw	r26, 0x22	; 34
     3c6:	a8 17       	cp	r26, r24
     3c8:	b9 07       	cpc	r27, r25
     3ca:	61 f7       	brne	.-40     	; 0x3a4 <init_cmuData+0x6>
     3cc:	08 95       	ret

000003ce <IO_init>:
     3ce:	86 ec       	ldi	r24, 0xC6	; 198
     3d0:	84 b9       	out	0x04, r24	; 4
     3d2:	8b e8       	ldi	r24, 0x8B	; 139
     3d4:	8a b9       	out	0x0a, r24	; 10
     3d6:	87 ea       	ldi	r24, 0xA7	; 167
     3d8:	87 b9       	out	0x07, r24	; 7
     3da:	15 b8       	out	0x05, r1	; 5
     3dc:	8b b1       	in	r24, 0x0b	; 11
     3de:	8a 68       	ori	r24, 0x8A	; 138
     3e0:	8b b9       	out	0x0b, r24	; 11
     3e2:	47 9a       	sbi	0x08, 7	; 8
     3e4:	45 9a       	sbi	0x08, 5	; 8
     3e6:	2f 98       	cbi	0x05, 7	; 5
     3e8:	40 9a       	sbi	0x08, 0	; 8
     3ea:	08 95       	ret

000003ec <timer_init>:
     3ec:	14 bc       	out	0x24, r1	; 36
     3ee:	85 e0       	ldi	r24, 0x05	; 5
     3f0:	85 bd       	out	0x25, r24	; 37
     3f2:	81 e0       	ldi	r24, 0x01	; 1
     3f4:	80 93 6e 00 	sts	0x006E, r24	; 0x80006e <__TEXT_REGION_LENGTH__+0x7e006e>
     3f8:	08 95       	ret

000003fa <CMU_send_read_receipt>:
     3fa:	0f 93       	push	r16
     3fc:	1f 93       	push	r17
     3fe:	cf 93       	push	r28
     400:	df 93       	push	r29
     402:	1f 92       	push	r1
     404:	cd b7       	in	r28, 0x3d	; 61
     406:	de b7       	in	r29, 0x3e	; 62
     408:	8c 01       	movw	r16, r24
     40a:	19 82       	std	Y+1, r1	; 0x01
     40c:	0e 94 f2 09 	call	0x13e4	; 0x13e4 <MCP2515_findFreeTxBuffer>
     410:	f8 01       	movw	r30, r16
     412:	01 81       	ldd	r16, Z+1	; 0x01
     414:	10 e0       	ldi	r17, 0x00	; 0
     416:	20 e0       	ldi	r18, 0x00	; 0
     418:	30 e0       	ldi	r19, 0x00	; 0
     41a:	32 2f       	mov	r19, r18
     41c:	21 2f       	mov	r18, r17
     41e:	10 2f       	mov	r17, r16
     420:	00 27       	eor	r16, r16
     422:	02 61       	ori	r16, 0x12	; 18
     424:	24 60       	ori	r18, 0x04	; 4
     426:	38 60       	ori	r19, 0x08	; 8
     428:	ae 01       	movw	r20, r28
     42a:	4f 5f       	subi	r20, 0xFF	; 255
     42c:	5f 4f       	sbci	r21, 0xFF	; 255
     42e:	60 e0       	ldi	r22, 0x00	; 0
     430:	0e 94 c0 0b 	call	0x1780	; 0x1780 <MCP2515_TX>
     434:	81 e0       	ldi	r24, 0x01	; 1
     436:	0f 90       	pop	r0
     438:	df 91       	pop	r29
     43a:	cf 91       	pop	r28
     43c:	1f 91       	pop	r17
     43e:	0f 91       	pop	r16
     440:	08 95       	ret

00000442 <CMU_Wake_set>:
}
void CMU_Wake_set()
{
	CMURxPacketCount= 0;
     442:	10 92 0e 01 	sts	0x010E, r1	; 0x80010e <CMURxPacketCount>
	PORTC &= ~(1<<PINC1);
     446:	41 98       	cbi	0x08, 1	; 8
     448:	08 95       	ret

0000044a <CMU_Wake_reset>:
}
void CMU_Wake_reset()
{

	PORTC |= (1<<PINC1);
     44a:	41 9a       	sbi	0x08, 1	; 8
     44c:	08 95       	ret

0000044e <CMU_Register>:
}


uint8_t CMU_Register(CMU * cmu, uint16_t CMU_ID)
{
     44e:	cf 93       	push	r28
     450:	df 93       	push	r29
     452:	ec 01       	movw	r28, r24
	for(uint8_t count = 0; count < CMU_COUNT; count++)			//parsing through our cmu array, looking for a free spot, or if we are already registered.
	{

		if(cmu->CMU_ID == 0)			//if the cmu element of the array has not been allocated, or if the cmu is already registered,
     454:	89 81       	ldd	r24, Y+1	; 0x01
     456:	88 23       	and	r24, r24
     458:	91 f0       	breq	.+36     	; 0x47e <CMU_Register+0x30>
			cmu->CMU_ID = CMU_ID;								//assign this element to the CMU that sent the reg request.

			while (!CMU_send_read_receipt(cmu));			//keep trying to send, until a tx buffer is free.
			break;
		}
		else if(cmu->CMU_ID == CMU_ID)		//if this function encounters its own ID, it means there is a duplicate ID. 
     45a:	90 e0       	ldi	r25, 0x00	; 0
     45c:	68 17       	cp	r22, r24
     45e:	79 07       	cpc	r23, r25
     460:	29 f1       	breq	.+74     	; 0x4ac <CMU_Register+0x5e>
		{
			return 1;			//return error.
		}
		cmu++;
     462:	fe 01       	movw	r30, r28
     464:	b2 96       	adiw	r30, 0x22	; 34
uint8_t CMU_Register(CMU * cmu, uint16_t CMU_ID)
{
	for(uint8_t count = 0; count < CMU_COUNT; count++)			//parsing through our cmu array, looking for a free spot, or if we are already registered.
	{

		if(cmu->CMU_ID == 0)			//if the cmu element of the array has not been allocated, or if the cmu is already registered,
     466:	8b a1       	ldd	r24, Y+35	; 0x23
     468:	88 23       	and	r24, r24
     46a:	41 f0       	breq	.+16     	; 0x47c <CMU_Register+0x2e>
			cmu->CMU_ID = CMU_ID;								//assign this element to the CMU that sent the reg request.

			while (!CMU_send_read_receipt(cmu));			//keep trying to send, until a tx buffer is free.
			break;
		}
		else if(cmu->CMU_ID == CMU_ID)		//if this function encounters its own ID, it means there is a duplicate ID. 
     46c:	90 e0       	ldi	r25, 0x00	; 0
     46e:	68 17       	cp	r22, r24
     470:	79 07       	cpc	r23, r25
     472:	f1 f0       	breq	.+60     	; 0x4b0 <CMU_Register+0x62>
		{
			return 1;			//return error.
		}
		cmu++;
     474:	b2 96       	adiw	r30, 0x22	; 34
uint8_t CMU_Register(CMU * cmu, uint16_t CMU_ID)
{
	for(uint8_t count = 0; count < CMU_COUNT; count++)			//parsing through our cmu array, looking for a free spot, or if we are already registered.
	{

		if(cmu->CMU_ID == 0)			//if the cmu element of the array has not been allocated, or if the cmu is already registered,
     476:	81 81       	ldd	r24, Z+1	; 0x01
     478:	81 11       	cpse	r24, r1
     47a:	12 c0       	rjmp	.+36     	; 0x4a0 <CMU_Register+0x52>
	PORTC |= (1<<PINC1);
}


uint8_t CMU_Register(CMU * cmu, uint16_t CMU_ID)
{
     47c:	ef 01       	movw	r28, r30
	for(uint8_t count = 0; count < CMU_COUNT; count++)			//parsing through our cmu array, looking for a free spot, or if we are already registered.
	{

		if(cmu->CMU_ID == 0)			//if the cmu element of the array has not been allocated, or if the cmu is already registered,
		{
			if(!CMUAllRegistered)CMUAudit++;		//while it is in it's registration phase, increment the registration counter;
     47e:	80 91 0a 01 	lds	r24, 0x010A	; 0x80010a <CMUAllRegistered>
     482:	81 11       	cpse	r24, r1
     484:	05 c0       	rjmp	.+10     	; 0x490 <CMU_Register+0x42>
     486:	80 91 08 01 	lds	r24, 0x0108	; 0x800108 <__data_end>
     48a:	8f 5f       	subi	r24, 0xFF	; 255
     48c:	80 93 08 01 	sts	0x0108, r24	; 0x800108 <__data_end>
			cmu->CMU_ID = CMU_ID;								//assign this element to the CMU that sent the reg request.
     490:	69 83       	std	Y+1, r22	; 0x01

			while (!CMU_send_read_receipt(cmu));			//keep trying to send, until a tx buffer is free.
     492:	ce 01       	movw	r24, r28
     494:	0e 94 fd 01 	call	0x3fa	; 0x3fa <CMU_send_read_receipt>
     498:	88 23       	and	r24, r24
     49a:	d9 f3       	breq	.-10     	; 0x492 <CMU_Register+0x44>
		if(count == (CMU_COUNT-1))		//otherwise if all of the elements have already been allocated, we have an extra CMU.
		{
			return 2;		//return error
		}
	}
	return 0;
     49c:	80 e0       	ldi	r24, 0x00	; 0
     49e:	0b c0       	rjmp	.+22     	; 0x4b6 <CMU_Register+0x68>
			cmu->CMU_ID = CMU_ID;								//assign this element to the CMU that sent the reg request.

			while (!CMU_send_read_receipt(cmu));			//keep trying to send, until a tx buffer is free.
			break;
		}
		else if(cmu->CMU_ID == CMU_ID)		//if this function encounters its own ID, it means there is a duplicate ID. 
     4a0:	90 e0       	ldi	r25, 0x00	; 0
     4a2:	86 17       	cp	r24, r22
     4a4:	97 07       	cpc	r25, r23
     4a6:	31 f4       	brne	.+12     	; 0x4b4 <CMU_Register+0x66>
		{
			return 1;			//return error.
     4a8:	81 e0       	ldi	r24, 0x01	; 1
     4aa:	05 c0       	rjmp	.+10     	; 0x4b6 <CMU_Register+0x68>
     4ac:	81 e0       	ldi	r24, 0x01	; 1
     4ae:	03 c0       	rjmp	.+6      	; 0x4b6 <CMU_Register+0x68>
     4b0:	81 e0       	ldi	r24, 0x01	; 1
     4b2:	01 c0       	rjmp	.+2      	; 0x4b6 <CMU_Register+0x68>
		}
		cmu++;
		if(count == (CMU_COUNT-1))		//otherwise if all of the elements have already been allocated, we have an extra CMU.
		{
			return 2;		//return error
     4b4:	82 e0       	ldi	r24, 0x02	; 2
		}
	}
	return 0;
	
}
     4b6:	df 91       	pop	r29
     4b8:	cf 91       	pop	r28
     4ba:	08 95       	ret

000004bc <CMU_Store_Data>:

uint8_t CMU_Store_Data(CMU * cmu, uint8_t CMU_ID, uint8_t message_type2, uint8_t address)
{
     4bc:	bf 92       	push	r11
     4be:	cf 92       	push	r12
     4c0:	df 92       	push	r13
     4c2:	ef 92       	push	r14
     4c4:	ff 92       	push	r15
     4c6:	0f 93       	push	r16
     4c8:	1f 93       	push	r17
     4ca:	cf 93       	push	r28
     4cc:	df 93       	push	r29
     4ce:	cd b7       	in	r28, 0x3d	; 61
     4d0:	de b7       	in	r29, 0x3e	; 62
     4d2:	28 97       	sbiw	r28, 0x08	; 8
     4d4:	0f b6       	in	r0, 0x3f	; 63
     4d6:	f8 94       	cli
     4d8:	de bf       	out	0x3e, r29	; 62
     4da:	0f be       	out	0x3f, r0	; 63
     4dc:	cd bf       	out	0x3d, r28	; 61
     4de:	8c 01       	movw	r16, r24
     4e0:	f6 2e       	mov	r15, r22
     4e2:	e4 2e       	mov	r14, r20
	uint8_t data[8];											//make a bucket for our data.
	CMU * cmu2 = cmu;
	cmu2++;
	
	//this function takes a pointer of a suitably sized array for the first address of the data we will acquire.
	MCP2515_RxBufferRead(data, address+6);						//collect our data, using the rx read buffer instruction.
     4e4:	66 e0       	ldi	r22, 0x06	; 6
     4e6:	62 0f       	add	r22, r18
     4e8:	ce 01       	movw	r24, r28
     4ea:	01 96       	adiw	r24, 0x01	; 1
     4ec:	0e 94 ac 09 	call	0x1358	; 0x1358 <MCP2515_RxBufferRead>
			switch(message_type2)				//depending on the message type
			{
				case TEMP1_ID:							//if it was the first TEMPERATURE packet,
					
					cmu->temperatures[0]=data[0]<<8;	//data 0 will hold the 8 MSBs of temp cell 0
					cmu->temperatures[0]|=data[1];		//data 1 will hold the 8 LSBs of temp cell 0
     4f0:	49 81       	ldd	r20, Y+1	; 0x01
     4f2:	50 e0       	ldi	r21, 0x00	; 0
     4f4:	54 2f       	mov	r21, r20
     4f6:	44 27       	eor	r20, r20
     4f8:	8a 81       	ldd	r24, Y+2	; 0x02
     4fa:	48 2b       	or	r20, r24
					cmu->temperatures[1]=data[2]<<8;	//data 2 will hold the 8 MSBs of temp cell 1
					cmu->temperatures[1]|=data[3];		//and so on...
     4fc:	2b 81       	ldd	r18, Y+3	; 0x03
     4fe:	30 e0       	ldi	r19, 0x00	; 0
     500:	32 2f       	mov	r19, r18
     502:	22 27       	eor	r18, r18
     504:	8c 81       	ldd	r24, Y+4	; 0x04
     506:	28 2b       	or	r18, r24
					cmu->temperatures[2]=data[4]<<8;
					cmu->temperatures[2]|=data[5];
     508:	8d 81       	ldd	r24, Y+5	; 0x05
     50a:	90 e0       	ldi	r25, 0x00	; 0
     50c:	98 2f       	mov	r25, r24
     50e:	88 27       	eor	r24, r24
     510:	6e 81       	ldd	r22, Y+6	; 0x06
     512:	fc 01       	movw	r30, r24
     514:	e6 2b       	or	r30, r22
     516:	bf 01       	movw	r22, r30
					cmu->temperatures[3]=data[6]<<8;
					cmu->temperatures[3]|=data[7];
     518:	8f 81       	ldd	r24, Y+7	; 0x07
     51a:	90 e0       	ldi	r25, 0x00	; 0
     51c:	98 2f       	mov	r25, r24
     51e:	88 27       	eor	r24, r24
     520:	e8 85       	ldd	r30, Y+8	; 0x08
     522:	8e 2b       	or	r24, r30
     524:	d8 01       	movw	r26, r16
     526:	aa 59       	subi	r26, 0x9A	; 154
     528:	bf 4f       	sbci	r27, 0xFF	; 255
	
}

uint8_t CMU_Store_Data(CMU * cmu, uint8_t CMU_ID, uint8_t message_type2, uint8_t address)
{
	uint8_t found = 0;
     52a:	b1 2c       	mov	r11, r1
		//_delay_ms(2);

		
		if(cmu->CMU_ID == CMU_ID)				//if cmu is the one we are looking for,
		{
			found = 1;
     52c:	dd 24       	eor	r13, r13
     52e:	d3 94       	inc	r13
	for(uint8_t counter = 0; counter < CMU_COUNT; counter++)	//move through the cells, looking for a matching one to the ID we have.
	{
		//_delay_ms(2);

		
		if(cmu->CMU_ID == CMU_ID)				//if cmu is the one we are looking for,
     530:	f8 01       	movw	r30, r16
     532:	c1 80       	ldd	r12, Z+1	; 0x01
     534:	cf 10       	cpse	r12, r15
     536:	51 c0       	rjmp	.+162    	; 0x5da <CMU_Store_Data+0x11e>
		{
			found = 1;
			switch(message_type2)				//depending on the message type
     538:	f2 e0       	ldi	r31, 0x02	; 2
     53a:	ef 16       	cp	r14, r31
     53c:	e9 f1       	breq	.+122    	; 0x5b8 <CMU_Store_Data+0xfc>
     53e:	fe 15       	cp	r31, r14
     540:	20 f0       	brcs	.+8      	; 0x54a <CMU_Store_Data+0x8e>
     542:	e1 e0       	ldi	r30, 0x01	; 1
     544:	ee 16       	cp	r14, r30
     546:	c1 f0       	breq	.+48     	; 0x578 <CMU_Store_Data+0xbc>
     548:	47 c0       	rjmp	.+142    	; 0x5d8 <CMU_Store_Data+0x11c>
     54a:	f4 e0       	ldi	r31, 0x04	; 4
     54c:	ef 16       	cp	r14, r31
     54e:	21 f0       	breq	.+8      	; 0x558 <CMU_Store_Data+0x9c>
     550:	e5 e0       	ldi	r30, 0x05	; 5
     552:	ee 16       	cp	r14, r30
     554:	09 f1       	breq	.+66     	; 0x598 <CMU_Store_Data+0xdc>
     556:	40 c0       	rjmp	.+128    	; 0x5d8 <CMU_Store_Data+0x11c>
			{
				case TEMP1_ID:							//if it was the first TEMPERATURE packet,
					
					cmu->temperatures[0]=data[0]<<8;	//data 0 will hold the 8 MSBs of temp cell 0
					cmu->temperatures[0]|=data[1];		//data 1 will hold the 8 LSBs of temp cell 0
     558:	f8 01       	movw	r30, r16
     55a:	53 8b       	std	Z+19, r21	; 0x13
     55c:	42 8b       	std	Z+18, r20	; 0x12
					cmu->temperatures[1]=data[2]<<8;	//data 2 will hold the 8 MSBs of temp cell 1
					cmu->temperatures[1]|=data[3];		//and so on...
     55e:	35 8b       	std	Z+21, r19	; 0x15
     560:	24 8b       	std	Z+20, r18	; 0x14
					cmu->temperatures[2]=data[4]<<8;
					cmu->temperatures[2]|=data[5];
     562:	77 8b       	std	Z+23, r23	; 0x17
     564:	66 8b       	std	Z+22, r22	; 0x16
					cmu->temperatures[3]=data[6]<<8;
					cmu->temperatures[3]|=data[7];
     566:	91 8f       	std	Z+25, r25	; 0x19
     568:	80 8f       	std	Z+24, r24	; 0x18
					CMU_data_count++;
     56a:	e0 91 09 01 	lds	r30, 0x0109	; 0x800109 <CMU_data_count>
     56e:	ef 5f       	subi	r30, 0xFF	; 255
     570:	e0 93 09 01 	sts	0x0109, r30	; 0x800109 <CMU_data_count>
		//_delay_ms(2);

		
		if(cmu->CMU_ID == CMU_ID)				//if cmu is the one we are looking for,
		{
			found = 1;
     574:	bd 2c       	mov	r11, r13
					cmu->temperatures[2]|=data[5];
					cmu->temperatures[3]=data[6]<<8;
					cmu->temperatures[3]|=data[7];
					CMU_data_count++;
					
					break;
     576:	31 c0       	rjmp	.+98     	; 0x5da <CMU_Store_Data+0x11e>
				case VOLT1_ID:							//if it was the first VOLTAGE packet,
					
					cmu->voltages[0]=data[0]<<8;		//data 0 will hold the 8 MSBs of voltages cell 0
					cmu->voltages[0]|=data[1];			//data 1 will hold the 8 LSBs of voltages cell 0
     578:	f8 01       	movw	r30, r16
     57a:	53 83       	std	Z+3, r21	; 0x03
     57c:	42 83       	std	Z+2, r20	; 0x02
					cmu->voltages[1]=data[2]<<8;		//data 2 will hold the 8 MSBs of voltages cell 1
					cmu->voltages[1]|=data[3];			//and so on...
     57e:	35 83       	std	Z+5, r19	; 0x05
     580:	24 83       	std	Z+4, r18	; 0x04
					cmu->voltages[2]=data[4]<<8;
					cmu->voltages[2]|=data[5];
     582:	77 83       	std	Z+7, r23	; 0x07
     584:	66 83       	std	Z+6, r22	; 0x06
					cmu->voltages[3]=data[6]<<8;
					cmu->voltages[3]|=data[7];
     586:	91 87       	std	Z+9, r25	; 0x09
     588:	80 87       	std	Z+8, r24	; 0x08
					
					CMU_data_count++;
     58a:	e0 91 09 01 	lds	r30, 0x0109	; 0x800109 <CMU_data_count>
     58e:	ef 5f       	subi	r30, 0xFF	; 255
     590:	e0 93 09 01 	sts	0x0109, r30	; 0x800109 <CMU_data_count>
		//_delay_ms(2);

		
		if(cmu->CMU_ID == CMU_ID)				//if cmu is the one we are looking for,
		{
			found = 1;
     594:	bd 2c       	mov	r11, r13
					cmu->voltages[2]|=data[5];
					cmu->voltages[3]=data[6]<<8;
					cmu->voltages[3]|=data[7];
					
					CMU_data_count++;
					break;
     596:	21 c0       	rjmp	.+66     	; 0x5da <CMU_Store_Data+0x11e>
				case TEMP2_ID:							//if it was the second TEMPERATURE packet,
				
					cmu->temperatures[4]=data[0]<<8;	//data 0 will hold the 8 MSBs of temp cell 4
					cmu->temperatures[4]|=data[1];		//data 1 will hold the 8 LSBs of temp cell 4
     598:	f8 01       	movw	r30, r16
     59a:	53 8f       	std	Z+27, r21	; 0x1b
     59c:	42 8f       	std	Z+26, r20	; 0x1a
					cmu->temperatures[5]=data[2]<<8;	//data 2 will hold the 8 MSBs of temp cell 5
					cmu->temperatures[5]|=data[3];		//and so on...
     59e:	35 8f       	std	Z+29, r19	; 0x1d
     5a0:	24 8f       	std	Z+28, r18	; 0x1c
					cmu->temperatures[6]=data[4]<<8;
					cmu->temperatures[6]|=data[5];
     5a2:	77 8f       	std	Z+31, r23	; 0x1f
     5a4:	66 8f       	std	Z+30, r22	; 0x1e
					cmu->temperatures[7]=data[6]<<8;
					cmu->temperatures[7]|=data[7];
     5a6:	91 a3       	std	Z+33, r25	; 0x21
     5a8:	80 a3       	std	Z+32, r24	; 0x20
					
					CMU_data_count++;
     5aa:	e0 91 09 01 	lds	r30, 0x0109	; 0x800109 <CMU_data_count>
     5ae:	ef 5f       	subi	r30, 0xFF	; 255
     5b0:	e0 93 09 01 	sts	0x0109, r30	; 0x800109 <CMU_data_count>
		//_delay_ms(2);

		
		if(cmu->CMU_ID == CMU_ID)				//if cmu is the one we are looking for,
		{
			found = 1;
     5b4:	bd 2c       	mov	r11, r13
					cmu->temperatures[7]=data[6]<<8;
					cmu->temperatures[7]|=data[7];
					
					CMU_data_count++;
					//LED_on(YELLOW_LED);
					break;
     5b6:	11 c0       	rjmp	.+34     	; 0x5da <CMU_Store_Data+0x11e>
				case VOLT2_ID:							//if it was the second VOLTAGE packet,
					cmu->voltages[4]=data[0]<<8;		//data 0 will hold the 8 MSBs of voltages cell 0
					cmu->voltages[4]|=data[1];			//data 1 will hold the 8 LSBs of voltages cell 0
     5b8:	f8 01       	movw	r30, r16
     5ba:	53 87       	std	Z+11, r21	; 0x0b
     5bc:	42 87       	std	Z+10, r20	; 0x0a
					cmu->voltages[5]=data[2]<<8;		//data 2 will hold the 8 MSBs of voltages cell 1
					cmu->voltages[5]|=data[3];			//and so on...
     5be:	35 87       	std	Z+13, r19	; 0x0d
     5c0:	24 87       	std	Z+12, r18	; 0x0c
					cmu->voltages[6]=data[4]<<8;
					cmu->voltages[6]|=data[5];
     5c2:	77 87       	std	Z+15, r23	; 0x0f
     5c4:	66 87       	std	Z+14, r22	; 0x0e
					cmu->voltages[7]=data[6]<<8;
					cmu->voltages[7]|=data[7];
     5c6:	91 8b       	std	Z+17, r25	; 0x11
     5c8:	80 8b       	std	Z+16, r24	; 0x10
					
					CMU_data_count++;
     5ca:	e0 91 09 01 	lds	r30, 0x0109	; 0x800109 <CMU_data_count>
     5ce:	ef 5f       	subi	r30, 0xFF	; 255
     5d0:	e0 93 09 01 	sts	0x0109, r30	; 0x800109 <CMU_data_count>
		//_delay_ms(2);

		
		if(cmu->CMU_ID == CMU_ID)				//if cmu is the one we are looking for,
		{
			found = 1;
     5d4:	bd 2c       	mov	r11, r13
					cmu->voltages[6]|=data[5];
					cmu->voltages[7]=data[6]<<8;
					cmu->voltages[7]|=data[7];
					
					CMU_data_count++;
					break;
     5d6:	01 c0       	rjmp	.+2      	; 0x5da <CMU_Store_Data+0x11e>
		//_delay_ms(2);

		
		if(cmu->CMU_ID == CMU_ID)				//if cmu is the one we are looking for,
		{
			found = 1;
     5d8:	bd 2c       	mov	r11, r13
				
					break;
			}
		
		}
		cmu++; //if this cmu was not a match, check the next one.
     5da:	0e 5d       	subi	r16, 0xDE	; 222
     5dc:	1f 4f       	sbci	r17, 0xFF	; 255
	
	//this function takes a pointer of a suitably sized array for the first address of the data we will acquire.
	MCP2515_RxBufferRead(data, address+6);						//collect our data, using the rx read buffer instruction.
	//interrupt for given RX buffer will now be cleared, by previous function.

	for(uint8_t counter = 0; counter < CMU_COUNT; counter++)	//move through the cells, looking for a matching one to the ID we have.
     5de:	a0 17       	cp	r26, r16
     5e0:	b1 07       	cpc	r27, r17
     5e2:	09 f0       	breq	.+2      	; 0x5e6 <CMU_Store_Data+0x12a>
     5e4:	a5 cf       	rjmp	.-182    	; 0x530 <CMU_Store_Data+0x74>
     5e6:	81 e0       	ldi	r24, 0x01	; 1
     5e8:	b1 10       	cpse	r11, r1
     5ea:	01 c0       	rjmp	.+2      	; 0x5ee <CMU_Store_Data+0x132>
     5ec:	80 e0       	ldi	r24, 0x00	; 0
		cmu++; //if this cmu was not a match, check the next one.
	}
	if (!found) return 0; //if we went through the entire cell database and couldn't find the cell ID, we will need to error and do another audit request.
	else return 1; //otherwise all ok.
	return 1;
}
     5ee:	28 96       	adiw	r28, 0x08	; 8
     5f0:	0f b6       	in	r0, 0x3f	; 63
     5f2:	f8 94       	cli
     5f4:	de bf       	out	0x3e, r29	; 62
     5f6:	0f be       	out	0x3f, r0	; 63
     5f8:	cd bf       	out	0x3d, r28	; 61
     5fa:	df 91       	pop	r29
     5fc:	cf 91       	pop	r28
     5fe:	1f 91       	pop	r17
     600:	0f 91       	pop	r16
     602:	ff 90       	pop	r15
     604:	ef 90       	pop	r14
     606:	df 90       	pop	r13
     608:	cf 90       	pop	r12
     60a:	bf 90       	pop	r11
     60c:	08 95       	ret

0000060e <TX_cellTemps>:


uint16_t TX_cellTemps(CMU _cmu, uint16_t * max_cell, uint16_t * min_cell, uint32_t *avgSum)
{
     60e:	4f 92       	push	r4
     610:	5f 92       	push	r5
     612:	6f 92       	push	r6
     614:	7f 92       	push	r7
     616:	8f 92       	push	r8
     618:	9f 92       	push	r9
     61a:	af 92       	push	r10
     61c:	bf 92       	push	r11
     61e:	cf 92       	push	r12
     620:	df 92       	push	r13
     622:	ef 92       	push	r14
     624:	0f 93       	push	r16
     626:	1f 93       	push	r17
     628:	cf 93       	push	r28
     62a:	df 93       	push	r29
     62c:	cd b7       	in	r28, 0x3d	; 61
     62e:	de b7       	in	r29, 0x3e	; 62
     630:	28 97       	sbiw	r28, 0x08	; 8
     632:	0f b6       	in	r0, 0x3f	; 63
     634:	f8 94       	cli
     636:	de bf       	out	0x3e, r29	; 62
     638:	0f be       	out	0x3f, r0	; 63
     63a:	cd bf       	out	0x3d, r28	; 61
     63c:	4c ac       	ldd	r4, Y+60	; 0x3c
     63e:	5d ac       	ldd	r5, Y+61	; 0x3d
     640:	8e ac       	ldd	r8, Y+62	; 0x3e
     642:	9f ac       	ldd	r9, Y+63	; 0x3f
     644:	22 96       	adiw	r28, 0x02	; 2
     646:	6e ac       	ldd	r6, Y+62	; 0x3e
     648:	7f ac       	ldd	r7, Y+63	; 0x3f
     64a:	22 97       	sbiw	r28, 0x02	; 2
     64c:	8e 01       	movw	r16, r28
     64e:	04 5d       	subi	r16, 0xD4	; 212
     650:	1f 4f       	sbci	r17, 0xFF	; 255
     652:	ce 01       	movw	r24, r28
     654:	01 96       	adiw	r24, 0x01	; 1
     656:	6c 01       	movw	r12, r24
     658:	5e 01       	movw	r10, r28
     65a:	94 e3       	ldi	r25, 0x34	; 52
     65c:	a9 0e       	add	r10, r25
     65e:	b1 1c       	adc	r11, r1
     660:	f6 01       	movw	r30, r12
	int8_t mob;
	uint8_t tempData[8];

	for(uint8_t cellCount = 0; cellCount <= 3; cellCount++)
	{
		*avgSum +=_cmu.temperatures[cellCount];
     662:	d8 01       	movw	r26, r16
     664:	8d 91       	ld	r24, X+
     666:	9d 91       	ld	r25, X+
     668:	8d 01       	movw	r16, r26
     66a:	d3 01       	movw	r26, r6
     66c:	4d 91       	ld	r20, X+
     66e:	5d 91       	ld	r21, X+
     670:	6d 91       	ld	r22, X+
     672:	7c 91       	ld	r23, X
     674:	13 97       	sbiw	r26, 0x03	; 3
     676:	48 0f       	add	r20, r24
     678:	59 1f       	adc	r21, r25
     67a:	61 1d       	adc	r22, r1
     67c:	71 1d       	adc	r23, r1
     67e:	4d 93       	st	X+, r20
     680:	5d 93       	st	X+, r21
     682:	6d 93       	st	X+, r22
     684:	7c 93       	st	X, r23
     686:	13 97       	sbiw	r26, 0x03	; 3
		*min_cell = _cmu.temperatures[cellCount] < *min_cell ? _cmu.temperatures[cellCount] : *min_cell;		//if the cell temperature is lower than the current minimum temp, update the minimum temp
     688:	d4 01       	movw	r26, r8
     68a:	2d 91       	ld	r18, X+
     68c:	3c 91       	ld	r19, X
     68e:	82 17       	cp	r24, r18
     690:	93 07       	cpc	r25, r19
     692:	08 f4       	brcc	.+2      	; 0x696 <TX_cellTemps+0x88>
     694:	9c 01       	movw	r18, r24
     696:	d4 01       	movw	r26, r8
     698:	2d 93       	st	X+, r18
     69a:	3c 93       	st	X, r19
		*max_cell = _cmu.temperatures[cellCount] > *max_cell ? _cmu.temperatures[cellCount] : *max_cell;		//if the cell temperature is higher than the current maximum temp, update the maximum temp
     69c:	d2 01       	movw	r26, r4
     69e:	2d 91       	ld	r18, X+
     6a0:	3c 91       	ld	r19, X
     6a2:	28 17       	cp	r18, r24
     6a4:	39 07       	cpc	r19, r25
     6a6:	08 f4       	brcc	.+2      	; 0x6aa <TX_cellTemps+0x9c>
     6a8:	9c 01       	movw	r18, r24
     6aa:	d2 01       	movw	r26, r4
     6ac:	2d 93       	st	X+, r18
     6ae:	3c 93       	st	X, r19
		tempData[cellCount*2]	= _cmu.temperatures[cellCount] >> 8;
     6b0:	90 83       	st	Z, r25
		tempData[cellCount*2+1] = _cmu.temperatures[cellCount];
     6b2:	81 83       	std	Z+1, r24	; 0x01
     6b4:	32 96       	adiw	r30, 0x02	; 2
uint16_t TX_cellTemps(CMU _cmu, uint16_t * max_cell, uint16_t * min_cell, uint32_t *avgSum)
{
	int8_t mob;
	uint8_t tempData[8];

	for(uint8_t cellCount = 0; cellCount <= 3; cellCount++)
     6b6:	0a 15       	cp	r16, r10
     6b8:	1b 05       	cpc	r17, r11
     6ba:	99 f6       	brne	.-90     	; 0x662 <TX_cellTemps+0x54>
		*min_cell = _cmu.temperatures[cellCount] < *min_cell ? _cmu.temperatures[cellCount] : *min_cell;		//if the cell temperature is lower than the current minimum temp, update the minimum temp
		*max_cell = _cmu.temperatures[cellCount] > *max_cell ? _cmu.temperatures[cellCount] : *max_cell;		//if the cell temperature is higher than the current maximum temp, update the maximum temp
		tempData[cellCount*2]	= _cmu.temperatures[cellCount] >> 8;
		tempData[cellCount*2+1] = _cmu.temperatures[cellCount];
	}
	mob = CAN_findFreeTXMOB();
     6bc:	0e 94 80 01 	call	0x300	; 0x300 <CAN_findFreeTXMOB>
	CAN_TXMOB(mob, 8, tempData, ((uint32_t)1<<25)|((uint32_t)DEVICE_ID<<13)|CC_TEMP1_ID, 0); //transmit first 4 cell data and do not wait for finish
     6c0:	e1 2c       	mov	r14, r1
     6c2:	04 e6       	ldi	r16, 0x64	; 100
     6c4:	10 e2       	ldi	r17, 0x20	; 32
     6c6:	20 e0       	ldi	r18, 0x00	; 0
     6c8:	32 e0       	ldi	r19, 0x02	; 2
     6ca:	ae 01       	movw	r20, r28
     6cc:	4f 5f       	subi	r20, 0xFF	; 255
     6ce:	5f 4f       	sbci	r21, 0xFF	; 255
     6d0:	68 e0       	ldi	r22, 0x08	; 8
     6d2:	0e 94 1b 01 	call	0x236	; 0x236 <CAN_TXMOB>
     6d6:	ef e9       	ldi	r30, 0x9F	; 159
     6d8:	ff e0       	ldi	r31, 0x0F	; 15
     6da:	31 97       	sbiw	r30, 0x01	; 1
     6dc:	f1 f7       	brne	.-4      	; 0x6da <TX_cellTemps+0xcc>
     6de:	00 c0       	rjmp	.+0      	; 0x6e0 <TX_cellTemps+0xd2>
     6e0:	00 00       	nop
     6e2:	9e 01       	movw	r18, r28
     6e4:	24 5c       	subi	r18, 0xC4	; 196
     6e6:	3f 4f       	sbci	r19, 0xFF	; 255
	_delay_ms(1);
	
	for(uint8_t cellCount = 4; cellCount <= 7; cellCount++)
	{
		*avgSum +=_cmu.temperatures[cellCount];
     6e8:	d5 01       	movw	r26, r10
     6ea:	8d 91       	ld	r24, X+
     6ec:	9d 91       	ld	r25, X+
     6ee:	5d 01       	movw	r10, r26
     6f0:	f3 01       	movw	r30, r6
     6f2:	40 81       	ld	r20, Z
     6f4:	51 81       	ldd	r21, Z+1	; 0x01
     6f6:	62 81       	ldd	r22, Z+2	; 0x02
     6f8:	73 81       	ldd	r23, Z+3	; 0x03
     6fa:	48 0f       	add	r20, r24
     6fc:	59 1f       	adc	r21, r25
     6fe:	61 1d       	adc	r22, r1
     700:	71 1d       	adc	r23, r1
     702:	40 83       	st	Z, r20
     704:	51 83       	std	Z+1, r21	; 0x01
     706:	62 83       	std	Z+2, r22	; 0x02
     708:	73 83       	std	Z+3, r23	; 0x03
		*min_cell = _cmu.temperatures[cellCount] < *min_cell ? _cmu.temperatures[cellCount] : *min_cell;		//if the cell temperature is lower than the current minimum temp, update the minimum temp
     70a:	f4 01       	movw	r30, r8
     70c:	40 81       	ld	r20, Z
     70e:	51 81       	ldd	r21, Z+1	; 0x01
     710:	84 17       	cp	r24, r20
     712:	95 07       	cpc	r25, r21
     714:	08 f4       	brcc	.+2      	; 0x718 <TX_cellTemps+0x10a>
     716:	ac 01       	movw	r20, r24
     718:	d4 01       	movw	r26, r8
     71a:	4d 93       	st	X+, r20
     71c:	5c 93       	st	X, r21
		*max_cell = _cmu.temperatures[cellCount] > *max_cell ? _cmu.temperatures[cellCount] : *max_cell;		//if the cell temperature is higher than the current maximum temp, update the maximum temp
     71e:	f2 01       	movw	r30, r4
     720:	40 81       	ld	r20, Z
     722:	51 81       	ldd	r21, Z+1	; 0x01
     724:	48 17       	cp	r20, r24
     726:	59 07       	cpc	r21, r25
     728:	08 f4       	brcc	.+2      	; 0x72c <TX_cellTemps+0x11e>
     72a:	ac 01       	movw	r20, r24
     72c:	d2 01       	movw	r26, r4
     72e:	4d 93       	st	X+, r20
     730:	5c 93       	st	X, r21
		tempData[(cellCount-4)*2]	= _cmu.temperatures[cellCount] >> 8;
     732:	f6 01       	movw	r30, r12
     734:	90 83       	st	Z, r25
		tempData[(cellCount-4)*2+1] = _cmu.temperatures[cellCount];
     736:	81 83       	std	Z+1, r24	; 0x01
     738:	f2 e0       	ldi	r31, 0x02	; 2
     73a:	cf 0e       	add	r12, r31
     73c:	d1 1c       	adc	r13, r1
	}
	mob = CAN_findFreeTXMOB();
	CAN_TXMOB(mob, 8, tempData, ((uint32_t)1<<25)|((uint32_t)DEVICE_ID<<13)|CC_TEMP1_ID, 0); //transmit first 4 cell data and do not wait for finish
	_delay_ms(1);
	
	for(uint8_t cellCount = 4; cellCount <= 7; cellCount++)
     73e:	a2 16       	cp	r10, r18
     740:	b3 06       	cpc	r11, r19
     742:	91 f6       	brne	.-92     	; 0x6e8 <TX_cellTemps+0xda>
		*min_cell = _cmu.temperatures[cellCount] < *min_cell ? _cmu.temperatures[cellCount] : *min_cell;		//if the cell temperature is lower than the current minimum temp, update the minimum temp
		*max_cell = _cmu.temperatures[cellCount] > *max_cell ? _cmu.temperatures[cellCount] : *max_cell;		//if the cell temperature is higher than the current maximum temp, update the maximum temp
		tempData[(cellCount-4)*2]	= _cmu.temperatures[cellCount] >> 8;
		tempData[(cellCount-4)*2+1] = _cmu.temperatures[cellCount];
	}
	mob = CAN_findFreeTXMOB();
     744:	0e 94 80 01 	call	0x300	; 0x300 <CAN_findFreeTXMOB>
	CAN_TXMOB(mob, 8, tempData, ((uint32_t)1<<25)|((uint32_t)DEVICE_ID<<13)|CC_TEMP2_ID, 0); //transmit first 4 cell data and do not wait for finish
     748:	e1 2c       	mov	r14, r1
     74a:	05 e6       	ldi	r16, 0x65	; 101
     74c:	10 e2       	ldi	r17, 0x20	; 32
     74e:	20 e0       	ldi	r18, 0x00	; 0
     750:	32 e0       	ldi	r19, 0x02	; 2
     752:	ae 01       	movw	r20, r28
     754:	4f 5f       	subi	r20, 0xFF	; 255
     756:	5f 4f       	sbci	r21, 0xFF	; 255
     758:	68 e0       	ldi	r22, 0x08	; 8
     75a:	0e 94 1b 01 	call	0x236	; 0x236 <CAN_TXMOB>
     75e:	8f e9       	ldi	r24, 0x9F	; 159
     760:	9f e0       	ldi	r25, 0x0F	; 15
     762:	01 97       	sbiw	r24, 0x01	; 1
     764:	f1 f7       	brne	.-4      	; 0x762 <TX_cellTemps+0x154>
     766:	00 c0       	rjmp	.+0      	; 0x768 <TX_cellTemps+0x15a>
     768:	00 00       	nop
	_delay_ms(1);
	
	return 0;
	
}
     76a:	80 e0       	ldi	r24, 0x00	; 0
     76c:	90 e0       	ldi	r25, 0x00	; 0
     76e:	28 96       	adiw	r28, 0x08	; 8
     770:	0f b6       	in	r0, 0x3f	; 63
     772:	f8 94       	cli
     774:	de bf       	out	0x3e, r29	; 62
     776:	0f be       	out	0x3f, r0	; 63
     778:	cd bf       	out	0x3d, r28	; 61
     77a:	df 91       	pop	r29
     77c:	cf 91       	pop	r28
     77e:	1f 91       	pop	r17
     780:	0f 91       	pop	r16
     782:	ef 90       	pop	r14
     784:	df 90       	pop	r13
     786:	cf 90       	pop	r12
     788:	bf 90       	pop	r11
     78a:	af 90       	pop	r10
     78c:	9f 90       	pop	r9
     78e:	8f 90       	pop	r8
     790:	7f 90       	pop	r7
     792:	6f 90       	pop	r6
     794:	5f 90       	pop	r5
     796:	4f 90       	pop	r4
     798:	08 95       	ret

0000079a <TX_cellVoltage>:

uint8_t TX_cellVoltage(CMU _cmu, uint16_t * max_cell, uint16_t * min_cell, uint32_t * avgSum)
{
     79a:	4f 92       	push	r4
     79c:	5f 92       	push	r5
     79e:	6f 92       	push	r6
     7a0:	7f 92       	push	r7
     7a2:	8f 92       	push	r8
     7a4:	9f 92       	push	r9
     7a6:	af 92       	push	r10
     7a8:	bf 92       	push	r11
     7aa:	cf 92       	push	r12
     7ac:	df 92       	push	r13
     7ae:	ef 92       	push	r14
     7b0:	0f 93       	push	r16
     7b2:	1f 93       	push	r17
     7b4:	cf 93       	push	r28
     7b6:	df 93       	push	r29
     7b8:	cd b7       	in	r28, 0x3d	; 61
     7ba:	de b7       	in	r29, 0x3e	; 62
     7bc:	28 97       	sbiw	r28, 0x08	; 8
     7be:	0f b6       	in	r0, 0x3f	; 63
     7c0:	f8 94       	cli
     7c2:	de bf       	out	0x3e, r29	; 62
     7c4:	0f be       	out	0x3f, r0	; 63
     7c6:	cd bf       	out	0x3d, r28	; 61
     7c8:	4c ac       	ldd	r4, Y+60	; 0x3c
     7ca:	5d ac       	ldd	r5, Y+61	; 0x3d
     7cc:	8e ac       	ldd	r8, Y+62	; 0x3e
     7ce:	9f ac       	ldd	r9, Y+63	; 0x3f
     7d0:	22 96       	adiw	r28, 0x02	; 2
     7d2:	6e ac       	ldd	r6, Y+62	; 0x3e
     7d4:	7f ac       	ldd	r7, Y+63	; 0x3f
     7d6:	22 97       	sbiw	r28, 0x02	; 2
     7d8:	8e 01       	movw	r16, r28
     7da:	04 5e       	subi	r16, 0xE4	; 228
     7dc:	1f 4f       	sbci	r17, 0xFF	; 255
     7de:	ce 01       	movw	r24, r28
     7e0:	01 96       	adiw	r24, 0x01	; 1
     7e2:	6c 01       	movw	r12, r24
     7e4:	5e 01       	movw	r10, r28
     7e6:	94 e2       	ldi	r25, 0x24	; 36
     7e8:	a9 0e       	add	r10, r25
     7ea:	b1 1c       	adc	r11, r1
     7ec:	f6 01       	movw	r30, r12
	int8_t mob;
	uint8_t tempData[8];
	for(uint8_t cellCount = 0; cellCount <= 3; cellCount++)
	{
		*min_cell = _cmu.voltages[cellCount] < *min_cell ? _cmu.voltages[cellCount] : *min_cell;		//if the cell temperature is lower than the current minimum temp, update the minimum temp
     7ee:	d8 01       	movw	r26, r16
     7f0:	8d 91       	ld	r24, X+
     7f2:	9d 91       	ld	r25, X+
     7f4:	8d 01       	movw	r16, r26
     7f6:	d4 01       	movw	r26, r8
     7f8:	2d 91       	ld	r18, X+
     7fa:	3c 91       	ld	r19, X
     7fc:	82 17       	cp	r24, r18
     7fe:	93 07       	cpc	r25, r19
     800:	08 f4       	brcc	.+2      	; 0x804 <TX_cellVoltage+0x6a>
     802:	9c 01       	movw	r18, r24
     804:	d4 01       	movw	r26, r8
     806:	2d 93       	st	X+, r18
     808:	3c 93       	st	X, r19
		*max_cell = _cmu.voltages[cellCount] > *max_cell ? _cmu.voltages[cellCount] : *max_cell;		//if the cell temperature is higher than the current maximum temp, update the maximum temp
     80a:	d2 01       	movw	r26, r4
     80c:	2d 91       	ld	r18, X+
     80e:	3c 91       	ld	r19, X
     810:	28 17       	cp	r18, r24
     812:	39 07       	cpc	r19, r25
     814:	08 f4       	brcc	.+2      	; 0x818 <TX_cellVoltage+0x7e>
     816:	9c 01       	movw	r18, r24
     818:	d2 01       	movw	r26, r4
     81a:	2d 93       	st	X+, r18
     81c:	3c 93       	st	X, r19
		*avgSum +=_cmu.voltages[cellCount];
     81e:	d3 01       	movw	r26, r6
     820:	4d 91       	ld	r20, X+
     822:	5d 91       	ld	r21, X+
     824:	6d 91       	ld	r22, X+
     826:	7c 91       	ld	r23, X
     828:	13 97       	sbiw	r26, 0x03	; 3
     82a:	48 0f       	add	r20, r24
     82c:	59 1f       	adc	r21, r25
     82e:	61 1d       	adc	r22, r1
     830:	71 1d       	adc	r23, r1
     832:	4d 93       	st	X+, r20
     834:	5d 93       	st	X+, r21
     836:	6d 93       	st	X+, r22
     838:	7c 93       	st	X, r23
     83a:	13 97       	sbiw	r26, 0x03	; 3
		tempData[cellCount*2]	= _cmu.voltages[cellCount] >> 8;
     83c:	90 83       	st	Z, r25
		tempData[cellCount*2+1] = _cmu.voltages[cellCount];
     83e:	81 83       	std	Z+1, r24	; 0x01
     840:	32 96       	adiw	r30, 0x02	; 2

uint8_t TX_cellVoltage(CMU _cmu, uint16_t * max_cell, uint16_t * min_cell, uint32_t * avgSum)
{
	int8_t mob;
	uint8_t tempData[8];
	for(uint8_t cellCount = 0; cellCount <= 3; cellCount++)
     842:	0a 15       	cp	r16, r10
     844:	1b 05       	cpc	r17, r11
     846:	99 f6       	brne	.-90     	; 0x7ee <TX_cellVoltage+0x54>
		*max_cell = _cmu.voltages[cellCount] > *max_cell ? _cmu.voltages[cellCount] : *max_cell;		//if the cell temperature is higher than the current maximum temp, update the maximum temp
		*avgSum +=_cmu.voltages[cellCount];
		tempData[cellCount*2]	= _cmu.voltages[cellCount] >> 8;
		tempData[cellCount*2+1] = _cmu.voltages[cellCount];
	}
	mob = CAN_findFreeTXMOB();
     848:	0e 94 80 01 	call	0x300	; 0x300 <CAN_findFreeTXMOB>
	CAN_TXMOB(mob, 8, tempData, ((uint32_t)1<<25)|((uint32_t)DEVICE_ID<<13)|CC_VOLT1_ID, 0); //transmit first 4 cell data and do not wait for finish
     84c:	e1 2c       	mov	r14, r1
     84e:	0a e0       	ldi	r16, 0x0A	; 10
     850:	10 e2       	ldi	r17, 0x20	; 32
     852:	20 e0       	ldi	r18, 0x00	; 0
     854:	32 e0       	ldi	r19, 0x02	; 2
     856:	ae 01       	movw	r20, r28
     858:	4f 5f       	subi	r20, 0xFF	; 255
     85a:	5f 4f       	sbci	r21, 0xFF	; 255
     85c:	68 e0       	ldi	r22, 0x08	; 8
     85e:	0e 94 1b 01 	call	0x236	; 0x236 <CAN_TXMOB>
     862:	ef e9       	ldi	r30, 0x9F	; 159
     864:	ff e0       	ldi	r31, 0x0F	; 15
     866:	31 97       	sbiw	r30, 0x01	; 1
     868:	f1 f7       	brne	.-4      	; 0x866 <TX_cellVoltage+0xcc>
     86a:	00 c0       	rjmp	.+0      	; 0x86c <TX_cellVoltage+0xd2>
     86c:	00 00       	nop
     86e:	9e 01       	movw	r18, r28
     870:	24 5d       	subi	r18, 0xD4	; 212
     872:	3f 4f       	sbci	r19, 0xFF	; 255
	_delay_ms(1);
	for(uint8_t cellCount = 4; cellCount <= 7; cellCount++)
	{
		*min_cell = _cmu.voltages[cellCount] < *min_cell ? _cmu.voltages[cellCount] : *min_cell;		//if the cell temperature is lower than the current minimum temp, update the minimum temp
     874:	d5 01       	movw	r26, r10
     876:	8d 91       	ld	r24, X+
     878:	9d 91       	ld	r25, X+
     87a:	5d 01       	movw	r10, r26
     87c:	f4 01       	movw	r30, r8
     87e:	40 81       	ld	r20, Z
     880:	51 81       	ldd	r21, Z+1	; 0x01
     882:	84 17       	cp	r24, r20
     884:	95 07       	cpc	r25, r21
     886:	08 f4       	brcc	.+2      	; 0x88a <TX_cellVoltage+0xf0>
     888:	ac 01       	movw	r20, r24
     88a:	d4 01       	movw	r26, r8
     88c:	4d 93       	st	X+, r20
     88e:	5c 93       	st	X, r21
		*max_cell = _cmu.voltages[cellCount] > *max_cell ? _cmu.voltages[cellCount] : *max_cell;		//if the cell temperature is higher than the current maximum temp, update the maximum temp
     890:	f2 01       	movw	r30, r4
     892:	40 81       	ld	r20, Z
     894:	51 81       	ldd	r21, Z+1	; 0x01
     896:	48 17       	cp	r20, r24
     898:	59 07       	cpc	r21, r25
     89a:	08 f4       	brcc	.+2      	; 0x89e <TX_cellVoltage+0x104>
     89c:	ac 01       	movw	r20, r24
     89e:	d2 01       	movw	r26, r4
     8a0:	4d 93       	st	X+, r20
     8a2:	5c 93       	st	X, r21
		*avgSum +=_cmu.voltages[cellCount];
     8a4:	f3 01       	movw	r30, r6
     8a6:	40 81       	ld	r20, Z
     8a8:	51 81       	ldd	r21, Z+1	; 0x01
     8aa:	62 81       	ldd	r22, Z+2	; 0x02
     8ac:	73 81       	ldd	r23, Z+3	; 0x03
     8ae:	48 0f       	add	r20, r24
     8b0:	59 1f       	adc	r21, r25
     8b2:	61 1d       	adc	r22, r1
     8b4:	71 1d       	adc	r23, r1
     8b6:	40 83       	st	Z, r20
     8b8:	51 83       	std	Z+1, r21	; 0x01
     8ba:	62 83       	std	Z+2, r22	; 0x02
     8bc:	73 83       	std	Z+3, r23	; 0x03
		tempData[(cellCount-4)*2]	= _cmu.voltages[cellCount] >> 8;
     8be:	f6 01       	movw	r30, r12
     8c0:	90 83       	st	Z, r25
		tempData[(cellCount-4)*2+1] = _cmu.voltages[cellCount];
     8c2:	81 83       	std	Z+1, r24	; 0x01
     8c4:	f2 e0       	ldi	r31, 0x02	; 2
     8c6:	cf 0e       	add	r12, r31
     8c8:	d1 1c       	adc	r13, r1
		tempData[cellCount*2+1] = _cmu.voltages[cellCount];
	}
	mob = CAN_findFreeTXMOB();
	CAN_TXMOB(mob, 8, tempData, ((uint32_t)1<<25)|((uint32_t)DEVICE_ID<<13)|CC_VOLT1_ID, 0); //transmit first 4 cell data and do not wait for finish
	_delay_ms(1);
	for(uint8_t cellCount = 4; cellCount <= 7; cellCount++)
     8ca:	a2 16       	cp	r10, r18
     8cc:	b3 06       	cpc	r11, r19
     8ce:	91 f6       	brne	.-92     	; 0x874 <TX_cellVoltage+0xda>
		*max_cell = _cmu.voltages[cellCount] > *max_cell ? _cmu.voltages[cellCount] : *max_cell;		//if the cell temperature is higher than the current maximum temp, update the maximum temp
		*avgSum +=_cmu.voltages[cellCount];
		tempData[(cellCount-4)*2]	= _cmu.voltages[cellCount] >> 8;
		tempData[(cellCount-4)*2+1] = _cmu.voltages[cellCount];
	}
	mob = CAN_findFreeTXMOB();
     8d0:	0e 94 80 01 	call	0x300	; 0x300 <CAN_findFreeTXMOB>
	CAN_TXMOB(mob, 8, tempData, ((uint32_t)1<<25)|((uint32_t)DEVICE_ID<<13)|CC_VOLT2_ID, 0); //transmit first 4 cell data and do not wait for finish
     8d4:	e1 2c       	mov	r14, r1
     8d6:	0b e0       	ldi	r16, 0x0B	; 11
     8d8:	10 e2       	ldi	r17, 0x20	; 32
     8da:	20 e0       	ldi	r18, 0x00	; 0
     8dc:	32 e0       	ldi	r19, 0x02	; 2
     8de:	ae 01       	movw	r20, r28
     8e0:	4f 5f       	subi	r20, 0xFF	; 255
     8e2:	5f 4f       	sbci	r21, 0xFF	; 255
     8e4:	68 e0       	ldi	r22, 0x08	; 8
     8e6:	0e 94 1b 01 	call	0x236	; 0x236 <CAN_TXMOB>
     8ea:	8f e9       	ldi	r24, 0x9F	; 159
     8ec:	9f e0       	ldi	r25, 0x0F	; 15
     8ee:	01 97       	sbiw	r24, 0x01	; 1
     8f0:	f1 f7       	brne	.-4      	; 0x8ee <TX_cellVoltage+0x154>
     8f2:	00 c0       	rjmp	.+0      	; 0x8f4 <TX_cellVoltage+0x15a>
     8f4:	00 00       	nop
	_delay_ms(1);
	return 0;
}
     8f6:	80 e0       	ldi	r24, 0x00	; 0
     8f8:	28 96       	adiw	r28, 0x08	; 8
     8fa:	0f b6       	in	r0, 0x3f	; 63
     8fc:	f8 94       	cli
     8fe:	de bf       	out	0x3e, r29	; 62
     900:	0f be       	out	0x3f, r0	; 63
     902:	cd bf       	out	0x3d, r28	; 61
     904:	df 91       	pop	r29
     906:	cf 91       	pop	r28
     908:	1f 91       	pop	r17
     90a:	0f 91       	pop	r16
     90c:	ef 90       	pop	r14
     90e:	df 90       	pop	r13
     910:	cf 90       	pop	r12
     912:	bf 90       	pop	r11
     914:	af 90       	pop	r10
     916:	9f 90       	pop	r9
     918:	8f 90       	pop	r8
     91a:	7f 90       	pop	r7
     91c:	6f 90       	pop	r6
     91e:	5f 90       	pop	r5
     920:	4f 90       	pop	r4
     922:	08 95       	ret

00000924 <TX_globalData>:

uint8_t TX_globalData(uint16_t max_volt, uint16_t min_volt, uint16_t max_temp, uint16_t min_temp, uint32_t avgVSum, uint32_t avgTSum )
{
     924:	2f 92       	push	r2
     926:	3f 92       	push	r3
     928:	4f 92       	push	r4
     92a:	5f 92       	push	r5
     92c:	6f 92       	push	r6
     92e:	7f 92       	push	r7
     930:	8f 92       	push	r8
     932:	9f 92       	push	r9
     934:	af 92       	push	r10
     936:	bf 92       	push	r11
     938:	cf 92       	push	r12
     93a:	df 92       	push	r13
     93c:	ef 92       	push	r14
     93e:	ff 92       	push	r15
     940:	0f 93       	push	r16
     942:	1f 93       	push	r17
     944:	cf 93       	push	r28
     946:	df 93       	push	r29
     948:	cd b7       	in	r28, 0x3d	; 61
     94a:	de b7       	in	r29, 0x3e	; 62
     94c:	28 97       	sbiw	r28, 0x08	; 8
     94e:	0f b6       	in	r0, 0x3f	; 63
     950:	f8 94       	cli
     952:	de bf       	out	0x3e, r29	; 62
     954:	0f be       	out	0x3f, r0	; 63
     956:	cd bf       	out	0x3d, r28	; 61
     958:	78 2e       	mov	r7, r24
     95a:	69 2e       	mov	r6, r25
     95c:	56 2e       	mov	r5, r22
     95e:	47 2e       	mov	r4, r23
     960:	24 2e       	mov	r2, r20
     962:	35 2e       	mov	r3, r21
     964:	92 2e       	mov	r9, r18
     966:	83 2e       	mov	r8, r19
     968:	c8 01       	movw	r24, r16
     96a:	b7 01       	movw	r22, r14
	int8_t mob;
	uint8_t tempData[8];
	uint16_t avgV = avgVSum/(CMU_COUNT*8), avgT = avgTSum/(CMU_COUNT*8);
     96c:	28 e1       	ldi	r18, 0x18	; 24
     96e:	30 e0       	ldi	r19, 0x00	; 0
     970:	40 e0       	ldi	r20, 0x00	; 0
     972:	50 e0       	ldi	r21, 0x00	; 0
     974:	0e 94 48 0c 	call	0x1890	; 0x1890 <__udivmodsi4>
     978:	12 2f       	mov	r17, r18
     97a:	03 2f       	mov	r16, r19
     97c:	c6 01       	movw	r24, r12
     97e:	b5 01       	movw	r22, r10
     980:	28 e1       	ldi	r18, 0x18	; 24
     982:	30 e0       	ldi	r19, 0x00	; 0
     984:	40 e0       	ldi	r20, 0x00	; 0
     986:	50 e0       	ldi	r21, 0x00	; 0
     988:	0e 94 48 0c 	call	0x1890	; 0x1890 <__udivmodsi4>
     98c:	f2 2e       	mov	r15, r18
     98e:	d3 2e       	mov	r13, r19
	
	tempData[0]	= min_volt >> 8;
     990:	49 82       	std	Y+1, r4	; 0x01
	tempData[1] = min_volt;
     992:	5a 82       	std	Y+2, r5	; 0x02
	tempData[2]	= max_volt >> 8;
     994:	6b 82       	std	Y+3, r6	; 0x03
	tempData[3] = max_volt;
     996:	7c 82       	std	Y+4, r7	; 0x04
	tempData[4]	= avgV >> 8;
     998:	0d 83       	std	Y+5, r16	; 0x05
	tempData[5] = avgV;
     99a:	1e 83       	std	Y+6, r17	; 0x06
	mob = CAN_findFreeTXMOB();
     99c:	0e 94 80 01 	call	0x300	; 0x300 <CAN_findFreeTXMOB>
	CAN_TXMOB(mob, 6, tempData, ((uint32_t)1<<25)|((uint32_t)deviceID<<13)|CC_V_GLOBAL_ID, 0); //transmit first 4 cell data and do not wait for finish
     9a0:	00 91 75 01 	lds	r16, 0x0175	; 0x800175 <deviceID>
     9a4:	10 91 76 01 	lds	r17, 0x0176	; 0x800176 <deviceID+0x1>
     9a8:	20 e0       	ldi	r18, 0x00	; 0
     9aa:	30 e0       	ldi	r19, 0x00	; 0
     9ac:	0f 2e       	mov	r0, r31
     9ae:	fd e0       	ldi	r31, 0x0D	; 13
     9b0:	00 0f       	add	r16, r16
     9b2:	11 1f       	adc	r17, r17
     9b4:	22 1f       	adc	r18, r18
     9b6:	33 1f       	adc	r19, r19
     9b8:	fa 95       	dec	r31
     9ba:	d1 f7       	brne	.-12     	; 0x9b0 <TX_globalData+0x8c>
     9bc:	f0 2d       	mov	r31, r0
     9be:	01 60       	ori	r16, 0x01	; 1
     9c0:	32 60       	ori	r19, 0x02	; 2
     9c2:	e1 2c       	mov	r14, r1
     9c4:	ae 01       	movw	r20, r28
     9c6:	4f 5f       	subi	r20, 0xFF	; 255
     9c8:	5f 4f       	sbci	r21, 0xFF	; 255
     9ca:	66 e0       	ldi	r22, 0x06	; 6
     9cc:	0e 94 1b 01 	call	0x236	; 0x236 <CAN_TXMOB>
     9d0:	8f e9       	ldi	r24, 0x9F	; 159
     9d2:	9f e0       	ldi	r25, 0x0F	; 15
     9d4:	01 97       	sbiw	r24, 0x01	; 1
     9d6:	f1 f7       	brne	.-4      	; 0x9d4 <TX_globalData+0xb0>
     9d8:	00 c0       	rjmp	.+0      	; 0x9da <TX_globalData+0xb6>
     9da:	00 00       	nop
	_delay_ms(1);
	tempData[0]	= min_temp >> 8;
     9dc:	89 82       	std	Y+1, r8	; 0x01
	tempData[1] = min_temp;
     9de:	9a 82       	std	Y+2, r9	; 0x02
	tempData[2]	= max_temp >> 8;
     9e0:	3b 82       	std	Y+3, r3	; 0x03
	tempData[3] = max_temp;
     9e2:	2c 82       	std	Y+4, r2	; 0x04
	tempData[4]	= avgT >> 8;
     9e4:	dd 82       	std	Y+5, r13	; 0x05
	tempData[5] = avgT;
     9e6:	fe 82       	std	Y+6, r15	; 0x06
	mob = CAN_findFreeTXMOB();
     9e8:	0e 94 80 01 	call	0x300	; 0x300 <CAN_findFreeTXMOB>
	CAN_TXMOB(mob, 6, tempData, ((uint32_t)1<<25)|((uint32_t)deviceID<<13)|CC_T_GLOBAL_ID, 0); //transmit first 4 cell data and do not wait for finish
     9ec:	00 91 75 01 	lds	r16, 0x0175	; 0x800175 <deviceID>
     9f0:	10 91 76 01 	lds	r17, 0x0176	; 0x800176 <deviceID+0x1>
     9f4:	20 e0       	ldi	r18, 0x00	; 0
     9f6:	30 e0       	ldi	r19, 0x00	; 0
     9f8:	0f 2e       	mov	r0, r31
     9fa:	fd e0       	ldi	r31, 0x0D	; 13
     9fc:	00 0f       	add	r16, r16
     9fe:	11 1f       	adc	r17, r17
     a00:	22 1f       	adc	r18, r18
     a02:	33 1f       	adc	r19, r19
     a04:	fa 95       	dec	r31
     a06:	d1 f7       	brne	.-12     	; 0x9fc <TX_globalData+0xd8>
     a08:	f0 2d       	mov	r31, r0
     a0a:	02 60       	ori	r16, 0x02	; 2
     a0c:	32 60       	ori	r19, 0x02	; 2
     a0e:	ae 01       	movw	r20, r28
     a10:	4f 5f       	subi	r20, 0xFF	; 255
     a12:	5f 4f       	sbci	r21, 0xFF	; 255
     a14:	66 e0       	ldi	r22, 0x06	; 6
     a16:	0e 94 1b 01 	call	0x236	; 0x236 <CAN_TXMOB>
     a1a:	8f e9       	ldi	r24, 0x9F	; 159
     a1c:	9f e0       	ldi	r25, 0x0F	; 15
     a1e:	01 97       	sbiw	r24, 0x01	; 1
     a20:	f1 f7       	brne	.-4      	; 0xa1e <TX_globalData+0xfa>
     a22:	00 c0       	rjmp	.+0      	; 0xa24 <TX_globalData+0x100>
     a24:	00 00       	nop
	_delay_ms(1);
	
	return 0;
}
     a26:	80 e0       	ldi	r24, 0x00	; 0
     a28:	28 96       	adiw	r28, 0x08	; 8
     a2a:	0f b6       	in	r0, 0x3f	; 63
     a2c:	f8 94       	cli
     a2e:	de bf       	out	0x3e, r29	; 62
     a30:	0f be       	out	0x3f, r0	; 63
     a32:	cd bf       	out	0x3d, r28	; 61
     a34:	df 91       	pop	r29
     a36:	cf 91       	pop	r28
     a38:	1f 91       	pop	r17
     a3a:	0f 91       	pop	r16
     a3c:	ff 90       	pop	r15
     a3e:	ef 90       	pop	r14
     a40:	df 90       	pop	r13
     a42:	cf 90       	pop	r12
     a44:	bf 90       	pop	r11
     a46:	af 90       	pop	r10
     a48:	9f 90       	pop	r9
     a4a:	8f 90       	pop	r8
     a4c:	7f 90       	pop	r7
     a4e:	6f 90       	pop	r6
     a50:	5f 90       	pop	r5
     a52:	4f 90       	pop	r4
     a54:	3f 90       	pop	r3
     a56:	2f 90       	pop	r2
     a58:	08 95       	ret

00000a5a <LED_on>:
void LED_on( uint8_t selection)
{
	switch(selection)
     a5a:	88 23       	and	r24, r24
     a5c:	19 f0       	breq	.+6      	; 0xa64 <LED_on+0xa>
     a5e:	81 30       	cpi	r24, 0x01	; 1
     a60:	19 f0       	breq	.+6      	; 0xa68 <LED_on+0xe>
     a62:	08 95       	ret
	{
		case YELLOW_LED:
			PORTD &= ~(1<<PIND7);
     a64:	5f 98       	cbi	0x0b, 7	; 11
			break;
     a66:	08 95       	ret
		case RED_LED:
			PORTD &= ~(1<<PIND1);
     a68:	59 98       	cbi	0x0b, 1	; 11
     a6a:	08 95       	ret

00000a6c <LED_off>:
			break;
	}
}
void LED_off( uint8_t selection)
{
	switch(selection)
     a6c:	88 23       	and	r24, r24
     a6e:	19 f0       	breq	.+6      	; 0xa76 <LED_off+0xa>
     a70:	81 30       	cpi	r24, 0x01	; 1
     a72:	19 f0       	breq	.+6      	; 0xa7a <LED_off+0xe>
     a74:	08 95       	ret
	{
		case YELLOW_LED:
			PORTD |= (1<<PIND7);
     a76:	5f 9a       	sbi	0x0b, 7	; 11
			break;
     a78:	08 95       	ret
		case RED_LED:
			PORTD |= (1<<PIND1);
     a7a:	59 9a       	sbi	0x0b, 1	; 11
     a7c:	08 95       	ret

00000a7e <flash_LED>:
			break;
	}
}
void flash_LED(uint8_t number, uint8_t selection, uint8_t duration)
{
	duration = duration/2;
     a7e:	46 95       	lsr	r20
	if(selection == RED_LED)
     a80:	61 30       	cpi	r22, 0x01	; 1
     a82:	19 f0       	breq	.+6      	; 0xa8a <flash_LED+0xc>
			}
		}
	}
	else
	{
		for(uint8_t count = 0;count<number;count++)
     a84:	81 11       	cpse	r24, r1
     a86:	20 c0       	rjmp	.+64     	; 0xac8 <flash_LED+0x4a>
     a88:	08 95       	ret
void flash_LED(uint8_t number, uint8_t selection, uint8_t duration)
{
	duration = duration/2;
	if(selection == RED_LED)
	{
		for(uint8_t count = 0; count < number ;count++)
     a8a:	88 23       	and	r24, r24
     a8c:	09 f4       	brne	.+2      	; 0xa90 <flash_LED+0x12>
     a8e:	42 c0       	rjmp	.+132    	; 0xb14 <flash_LED+0x96>
     a90:	20 e0       	ldi	r18, 0x00	; 0
		{
			PORTD &= ~(1<<PIND1);
     a92:	59 98       	cbi	0x0b, 1	; 11
			for(uint8_t counter = 0; counter < duration; counter++)
     a94:	44 23       	and	r20, r20
     a96:	b9 f1       	breq	.+110    	; 0xb06 <flash_LED+0x88>
     a98:	90 e0       	ldi	r25, 0x00	; 0
	#else
		//round up by default
		__ticks_dc = (uint32_t)(ceil(fabs(__tmp)));
	#endif

	__builtin_avr_delay_cycles(__ticks_dc);
     a9a:	eb e8       	ldi	r30, 0x8B	; 139
     a9c:	ff e0       	ldi	r31, 0x0F	; 15
     a9e:	31 97       	sbiw	r30, 0x01	; 1
     aa0:	f1 f7       	brne	.-4      	; 0xa9e <flash_LED+0x20>
     aa2:	00 c0       	rjmp	.+0      	; 0xaa4 <flash_LED+0x26>
     aa4:	00 00       	nop
     aa6:	9f 5f       	subi	r25, 0xFF	; 255
     aa8:	49 13       	cpse	r20, r25
     aaa:	f7 cf       	rjmp	.-18     	; 0xa9a <flash_LED+0x1c>
     aac:	29 c0       	rjmp	.+82     	; 0xb00 <flash_LED+0x82>
     aae:	eb e8       	ldi	r30, 0x8B	; 139
     ab0:	ff e0       	ldi	r31, 0x0F	; 15
     ab2:	31 97       	sbiw	r30, 0x01	; 1
     ab4:	f1 f7       	brne	.-4      	; 0xab2 <flash_LED+0x34>
     ab6:	00 c0       	rjmp	.+0      	; 0xab8 <flash_LED+0x3a>
     ab8:	00 00       	nop
			{
				_delay_us(995);
			}
			PORTD |= (1<<PIND1);
			for(uint8_t counter = 0; counter < duration; counter++)
     aba:	9f 5f       	subi	r25, 0xFF	; 255
     abc:	49 13       	cpse	r20, r25
     abe:	f7 cf       	rjmp	.-18     	; 0xaae <flash_LED+0x30>
void flash_LED(uint8_t number, uint8_t selection, uint8_t duration)
{
	duration = duration/2;
	if(selection == RED_LED)
	{
		for(uint8_t count = 0; count < number ;count++)
     ac0:	2f 5f       	subi	r18, 0xFF	; 255
     ac2:	82 13       	cpse	r24, r18
     ac4:	e6 cf       	rjmp	.-52     	; 0xa92 <flash_LED+0x14>
     ac6:	08 95       	ret
			}
		}
	}
	else
	{
		for(uint8_t count = 0;count<number;count++)
     ac8:	20 e0       	ldi	r18, 0x00	; 0
		{
			PORTD &= ~(1<<PIND7);
     aca:	5f 98       	cbi	0x0b, 7	; 11
			for(uint8_t counter = 0; counter < duration; counter++)
     acc:	44 23       	and	r20, r20
     ace:	e9 f0       	breq	.+58     	; 0xb0a <flash_LED+0x8c>
     ad0:	90 e0       	ldi	r25, 0x00	; 0
     ad2:	eb e8       	ldi	r30, 0x8B	; 139
     ad4:	ff e0       	ldi	r31, 0x0F	; 15
     ad6:	31 97       	sbiw	r30, 0x01	; 1
     ad8:	f1 f7       	brne	.-4      	; 0xad6 <flash_LED+0x58>
     ada:	00 c0       	rjmp	.+0      	; 0xadc <flash_LED+0x5e>
     adc:	00 00       	nop
     ade:	9f 5f       	subi	r25, 0xFF	; 255
     ae0:	49 13       	cpse	r20, r25
     ae2:	f7 cf       	rjmp	.-18     	; 0xad2 <flash_LED+0x54>
     ae4:	14 c0       	rjmp	.+40     	; 0xb0e <flash_LED+0x90>
     ae6:	eb e8       	ldi	r30, 0x8B	; 139
     ae8:	ff e0       	ldi	r31, 0x0F	; 15
     aea:	31 97       	sbiw	r30, 0x01	; 1
     aec:	f1 f7       	brne	.-4      	; 0xaea <flash_LED+0x6c>
     aee:	00 c0       	rjmp	.+0      	; 0xaf0 <flash_LED+0x72>
     af0:	00 00       	nop
			{
				_delay_us(995);
			}
			PORTD |= (1<<PIND7);
			for(uint8_t counter = 0; counter < duration; counter++)
     af2:	9f 5f       	subi	r25, 0xFF	; 255
     af4:	49 13       	cpse	r20, r25
     af6:	f7 cf       	rjmp	.-18     	; 0xae6 <flash_LED+0x68>
			}
		}
	}
	else
	{
		for(uint8_t count = 0;count<number;count++)
     af8:	2f 5f       	subi	r18, 0xFF	; 255
     afa:	82 13       	cpse	r24, r18
     afc:	e6 cf       	rjmp	.-52     	; 0xaca <flash_LED+0x4c>
     afe:	08 95       	ret
			PORTD &= ~(1<<PIND1);
			for(uint8_t counter = 0; counter < duration; counter++)
			{
				_delay_us(995);
			}
			PORTD |= (1<<PIND1);
     b00:	59 9a       	sbi	0x0b, 1	; 11
     b02:	90 e0       	ldi	r25, 0x00	; 0
     b04:	d4 cf       	rjmp	.-88     	; 0xaae <flash_LED+0x30>
     b06:	59 9a       	sbi	0x0b, 1	; 11
     b08:	db cf       	rjmp	.-74     	; 0xac0 <flash_LED+0x42>
			PORTD &= ~(1<<PIND7);
			for(uint8_t counter = 0; counter < duration; counter++)
			{
				_delay_us(995);
			}
			PORTD |= (1<<PIND7);
     b0a:	5f 9a       	sbi	0x0b, 7	; 11
     b0c:	f5 cf       	rjmp	.-22     	; 0xaf8 <flash_LED+0x7a>
     b0e:	5f 9a       	sbi	0x0b, 7	; 11
     b10:	90 e0       	ldi	r25, 0x00	; 0
     b12:	e9 cf       	rjmp	.-46     	; 0xae6 <flash_LED+0x68>
     b14:	08 95       	ret

00000b16 <error_state>:
	}

}

void error_state(uint8_t code)
{
     b16:	cf 93       	push	r28
     b18:	df 93       	push	r29
     b1a:	1f 92       	push	r1
     b1c:	cd b7       	in	r28, 0x3d	; 61
     b1e:	de b7       	in	r29, 0x3e	; 62
     b20:	89 83       	std	Y+1, r24	; 0x01
	CMU_Wake_reset();
     b22:	0e 94 25 02 	call	0x44a	; 0x44a <CMU_Wake_reset>
	ALARM_PORT &= ~(ALARM_PIN);
     b26:	88 b1       	in	r24, 0x08	; 8
     b28:	88 b9       	out	0x08, r24	; 8
	cli();
     b2a:	f8 94       	cli
	while(1)
	{
		ALARM_PORT ^= (1<<ALARM_PIN);
     b2c:	ff 24       	eor	r15, r15
     b2e:	f3 94       	inc	r15
     b30:	88 b1       	in	r24, 0x08	; 8
     b32:	8f 25       	eor	r24, r15
     b34:	88 b9       	out	0x08, r24	; 8
		CAN_TXMOB(CAN_findFreeTXMOB(), 1, &code, ((uint32_t)1<<25)|((uint32_t)deviceID<<13)|ALARM_MSG,0);
     b36:	80 90 75 01 	lds	r8, 0x0175	; 0x800175 <deviceID>
     b3a:	90 90 76 01 	lds	r9, 0x0176	; 0x800176 <deviceID+0x1>
     b3e:	a1 2c       	mov	r10, r1
     b40:	b1 2c       	mov	r11, r1
     b42:	07 2e       	mov	r0, r23
     b44:	7d e0       	ldi	r23, 0x0D	; 13
     b46:	88 0c       	add	r8, r8
     b48:	99 1c       	adc	r9, r9
     b4a:	aa 1c       	adc	r10, r10
     b4c:	bb 1c       	adc	r11, r11
     b4e:	7a 95       	dec	r23
     b50:	d1 f7       	brne	.-12     	; 0xb46 <error_state+0x30>
     b52:	70 2d       	mov	r23, r0
     b54:	83 e0       	ldi	r24, 0x03	; 3
     b56:	88 2a       	or	r8, r24
     b58:	68 94       	set
     b5a:	b1 f8       	bld	r11, 1
     b5c:	0e 94 80 01 	call	0x300	; 0x300 <CAN_findFreeTXMOB>
     b60:	e1 2c       	mov	r14, r1
     b62:	95 01       	movw	r18, r10
     b64:	84 01       	movw	r16, r8
     b66:	ae 01       	movw	r20, r28
     b68:	4f 5f       	subi	r20, 0xFF	; 255
     b6a:	5f 4f       	sbci	r21, 0xFF	; 255
     b6c:	6f 2d       	mov	r22, r15
     b6e:	0e 94 1b 01 	call	0x236	; 0x236 <CAN_TXMOB>
		flash_LED(2,YELLOW_LED,100);
     b72:	44 e6       	ldi	r20, 0x64	; 100
     b74:	60 e0       	ldi	r22, 0x00	; 0
     b76:	82 e0       	ldi	r24, 0x02	; 2
     b78:	0e 94 3f 05 	call	0xa7e	; 0xa7e <flash_LED>
		flash_LED(2,RED_LED,100);
     b7c:	44 e6       	ldi	r20, 0x64	; 100
     b7e:	6f 2d       	mov	r22, r15
     b80:	82 e0       	ldi	r24, 0x02	; 2
     b82:	0e 94 3f 05 	call	0xa7e	; 0xa7e <flash_LED>
     b86:	d4 cf       	rjmp	.-88     	; 0xb30 <error_state+0x1a>

00000b88 <CMU_process_inbound_message>:
		return ((coulombsFull - coulombCount)/coulombsFull)*100;
	}
}

void CMU_process_inbound_message(uint8_t rx_buf_address,CMU * cmu)
{
     b88:	ef 92       	push	r14
     b8a:	ff 92       	push	r15
     b8c:	1f 93       	push	r17
     b8e:	cf 93       	push	r28
     b90:	df 93       	push	r29
     b92:	18 2f       	mov	r17, r24
     b94:	7b 01       	movw	r14, r22
	//potential for optimisation here
    //combine 5 LSBs of SIDH(bits 26..21) and 3 MSBs of SIDL(bits 20..18) which is the CMU ID in the packet structures.
	uint16_t CMU_ID = ( ((MCP2515_reg_read(rx_buf_address+1) & 0x3F)<<3)|
     b96:	81 e0       	ldi	r24, 0x01	; 1
     b98:	81 0f       	add	r24, r17
     b9a:	0e 94 e3 09 	call	0x13c6	; 0x13c6 <MCP2515_reg_read>
     b9e:	c8 2f       	mov	r28, r24
                        ((MCP2515_reg_read(rx_buf_address+2) & 0xE0)>>5) );
     ba0:	82 e0       	ldi	r24, 0x02	; 2
     ba2:	81 0f       	add	r24, r17
     ba4:	0e 94 e3 09 	call	0x13c6	; 0x13c6 <MCP2515_reg_read>

void CMU_process_inbound_message(uint8_t rx_buf_address,CMU * cmu)
{
	//potential for optimisation here
    //combine 5 LSBs of SIDH(bits 26..21) and 3 MSBs of SIDL(bits 20..18) which is the CMU ID in the packet structures.
	uint16_t CMU_ID = ( ((MCP2515_reg_read(rx_buf_address+1) & 0x3F)<<3)|
     ba8:	cf 73       	andi	r28, 0x3F	; 63
     baa:	6c 2f       	mov	r22, r28
     bac:	70 e0       	ldi	r23, 0x00	; 0
     bae:	66 0f       	add	r22, r22
     bb0:	77 1f       	adc	r23, r23
     bb2:	66 0f       	add	r22, r22
     bb4:	77 1f       	adc	r23, r23
     bb6:	66 0f       	add	r22, r22
     bb8:	77 1f       	adc	r23, r23
     bba:	82 95       	swap	r24
     bbc:	86 95       	lsr	r24
     bbe:	87 70       	andi	r24, 0x07	; 7
     bc0:	eb 01       	movw	r28, r22
     bc2:	c8 2b       	or	r28, r24
                        ((MCP2515_reg_read(rx_buf_address+2) & 0xE0)>>5) );
    //message type is held in the 5 LSBs of EID0	
	uint8_t message_type = (MCP2515_reg_read(rx_buf_address+4) & 0x1F);
     bc4:	84 e0       	ldi	r24, 0x04	; 4
     bc6:	81 0f       	add	r24, r17
     bc8:	0e 94 e3 09 	call	0x13c6	; 0x13c6 <MCP2515_reg_read>

	switch(message_type)
     bcc:	8f 71       	andi	r24, 0x1F	; 31
     bce:	84 30       	cpi	r24, 0x04	; 4
     bd0:	c9 f0       	breq	.+50     	; 0xc04 <CMU_process_inbound_message+0x7c>
     bd2:	28 f4       	brcc	.+10     	; 0xbde <CMU_process_inbound_message+0x56>
     bd4:	81 30       	cpi	r24, 0x01	; 1
     bd6:	61 f1       	breq	.+88     	; 0xc30 <CMU_process_inbound_message+0xa8>
     bd8:	82 30       	cpi	r24, 0x02	; 2
     bda:	a9 f1       	breq	.+106    	; 0xc46 <CMU_process_inbound_message+0xbe>
     bdc:	3f c0       	rjmp	.+126    	; 0xc5c <CMU_process_inbound_message+0xd4>
     bde:	85 30       	cpi	r24, 0x05	; 5
     be0:	e1 f0       	breq	.+56     	; 0xc1a <CMU_process_inbound_message+0x92>
     be2:	83 31       	cpi	r24, 0x13	; 19
     be4:	d9 f5       	brne	.+118    	; 0xc5c <CMU_process_inbound_message+0xd4>
	{
        // If we get a audit response message, we need to register this CMU
		case AUDIT_RESPONSE:
			// flash_LED(5,YELLOW_LED,10);
			switch(CMU_Register(cmu, CMU_ID))
     be6:	be 01       	movw	r22, r28
     be8:	c7 01       	movw	r24, r14
     bea:	0e 94 27 02 	call	0x44e	; 0x44e <CMU_Register>
     bee:	81 30       	cpi	r24, 0x01	; 1
     bf0:	19 f0       	breq	.+6      	; 0xbf8 <CMU_process_inbound_message+0x70>
     bf2:	82 30       	cpi	r24, 0x02	; 2
     bf4:	21 f0       	breq	.+8      	; 0xbfe <CMU_process_inbound_message+0x76>
     bf6:	32 c0       	rjmp	.+100    	; 0xc5c <CMU_process_inbound_message+0xd4>
			{
				case 0:
					break;	// No issues with registering.
				case 1:
					error_state(ERROR_DUPLICATE_CMU_ID);
     bf8:	82 e0       	ldi	r24, 0x02	; 2
     bfa:	0e 94 8b 05 	call	0xb16	; 0xb16 <error_state>
					break;
				case 2:
					error_state(ERROR_NUMEROUS_CMU);
     bfe:	83 e0       	ldi	r24, 0x03	; 3
     c00:	0e 94 8b 05 	call	0xb16	; 0xb16 <error_state>
				default:
					break;
			}
			break;
		case TEMP1_ID:
			if(!CMU_Store_Data(cmu, CMU_ID, TEMP1_ID, rx_buf_address))
     c04:	21 2f       	mov	r18, r17
     c06:	44 e0       	ldi	r20, 0x04	; 4
     c08:	6c 2f       	mov	r22, r28
     c0a:	c7 01       	movw	r24, r14
     c0c:	0e 94 5e 02 	call	0x4bc	; 0x4bc <CMU_Store_Data>
     c10:	81 11       	cpse	r24, r1
     c12:	24 c0       	rjmp	.+72     	; 0xc5c <CMU_process_inbound_message+0xd4>
			    { error_state(ERROR_UNKNOWN_CMU_ID); } // Fails if the CMU ID is not known 
     c14:	86 e0       	ldi	r24, 0x06	; 6
     c16:	0e 94 8b 05 	call	0xb16	; 0xb16 <error_state>
			break;
		case TEMP2_ID:
			if(!CMU_Store_Data(cmu, CMU_ID, message_type, rx_buf_address))
     c1a:	21 2f       	mov	r18, r17
     c1c:	45 e0       	ldi	r20, 0x05	; 5
     c1e:	6c 2f       	mov	r22, r28
     c20:	c7 01       	movw	r24, r14
     c22:	0e 94 5e 02 	call	0x4bc	; 0x4bc <CMU_Store_Data>
     c26:	81 11       	cpse	r24, r1
     c28:	19 c0       	rjmp	.+50     	; 0xc5c <CMU_process_inbound_message+0xd4>
			    { error_state(ERROR_UNKNOWN_CMU_ID); } // Fails if the CMU ID is not known 
     c2a:	86 e0       	ldi	r24, 0x06	; 6
     c2c:	0e 94 8b 05 	call	0xb16	; 0xb16 <error_state>
			break;
		case VOLT1_ID:
			if(!CMU_Store_Data(cmu, CMU_ID, message_type, rx_buf_address))
     c30:	21 2f       	mov	r18, r17
     c32:	41 e0       	ldi	r20, 0x01	; 1
     c34:	6c 2f       	mov	r22, r28
     c36:	c7 01       	movw	r24, r14
     c38:	0e 94 5e 02 	call	0x4bc	; 0x4bc <CMU_Store_Data>
     c3c:	81 11       	cpse	r24, r1
     c3e:	0e c0       	rjmp	.+28     	; 0xc5c <CMU_process_inbound_message+0xd4>
			    { error_state(ERROR_UNKNOWN_CMU_ID); } // Fails if the CMU ID is not known 
     c40:	86 e0       	ldi	r24, 0x06	; 6
     c42:	0e 94 8b 05 	call	0xb16	; 0xb16 <error_state>
			break;
		case VOLT2_ID:
			if(!CMU_Store_Data(cmu, CMU_ID, message_type, rx_buf_address))
     c46:	21 2f       	mov	r18, r17
     c48:	42 e0       	ldi	r20, 0x02	; 2
     c4a:	6c 2f       	mov	r22, r28
     c4c:	c7 01       	movw	r24, r14
     c4e:	0e 94 5e 02 	call	0x4bc	; 0x4bc <CMU_Store_Data>
     c52:	81 11       	cpse	r24, r1
     c54:	03 c0       	rjmp	.+6      	; 0xc5c <CMU_process_inbound_message+0xd4>
			    { error_state(ERROR_UNKNOWN_CMU_ID); } // Fails if the CMU ID is not known 
     c56:	86 e0       	ldi	r24, 0x06	; 6
     c58:	0e 94 8b 05 	call	0xb16	; 0xb16 <error_state>
			break;
		default:
			break;
	} // This next section could be better off with the bit modify function.
}
     c5c:	df 91       	pop	r29
     c5e:	cf 91       	pop	r28
     c60:	1f 91       	pop	r17
     c62:	ff 90       	pop	r15
     c64:	ef 90       	pop	r14
     c66:	08 95       	ret

00000c68 <CMU_PollandProcess_RxBuffers>:
		return 0; //return error, there were no free buffers.
	}
}

void CMU_PollandProcess_RxBuffers(CMU * cmu)
{
     c68:	cf 93       	push	r28
     c6a:	df 93       	push	r29
     c6c:	ec 01       	movw	r28, r24
	
	//potential for optimisation here, using FILHIT bits.
	uint8_t status = (MCP2515_receive_status() & 3);		//poll to see if we have a message waiting.
     c6e:	0e 94 9c 09 	call	0x1338	; 0x1338 <MCP2515_receive_status>
	switch(status)
     c72:	83 70       	andi	r24, 0x03	; 3
     c74:	82 30       	cpi	r24, 0x02	; 2
     c76:	71 f0       	breq	.+28     	; 0xc94 <CMU_PollandProcess_RxBuffers+0x2c>
     c78:	83 30       	cpi	r24, 0x03	; 3
     c7a:	b1 f0       	breq	.+44     	; 0xca8 <CMU_PollandProcess_RxBuffers+0x40>
     c7c:	81 30       	cpi	r24, 0x01	; 1
     c7e:	09 f5       	brne	.+66     	; 0xcc2 <CMU_PollandProcess_RxBuffers+0x5a>
	{
		case 0:					//no message waiting (/VERY/ unlikely, as interrupt has said we have one.)
			break;
		case 1:					//rxb0 only has a message. (also /VERY/ unlikely)
			CMU_process_inbound_message(MCP2515_RXB0, cmu);
     c80:	be 01       	movw	r22, r28
     c82:	80 e6       	ldi	r24, 0x60	; 96
     c84:	0e 94 c4 05 	call	0xb88	; 0xb88 <CMU_process_inbound_message>
			MCP2515_bit_modify(MCP2515_CANINTF,0x00, status);				//e.g if status is 0b00000001, it will only modify the 0th pin.
     c88:	41 e0       	ldi	r20, 0x01	; 1
     c8a:	60 e0       	ldi	r22, 0x00	; 0
     c8c:	8c e2       	ldi	r24, 0x2C	; 44
     c8e:	0e 94 5d 09 	call	0x12ba	; 0x12ba <MCP2515_bit_modify>
			break;
     c92:	17 c0       	rjmp	.+46     	; 0xcc2 <CMU_PollandProcess_RxBuffers+0x5a>
		case 2:					//rxb1 only has a message
			CMU_process_inbound_message(MCP2515_RXB1, cmu);
     c94:	be 01       	movw	r22, r28
     c96:	80 e7       	ldi	r24, 0x70	; 112
     c98:	0e 94 c4 05 	call	0xb88	; 0xb88 <CMU_process_inbound_message>
			MCP2515_bit_modify(MCP2515_CANINTF,0x00, status);
     c9c:	42 e0       	ldi	r20, 0x02	; 2
     c9e:	60 e0       	ldi	r22, 0x00	; 0
     ca0:	8c e2       	ldi	r24, 0x2C	; 44
     ca2:	0e 94 5d 09 	call	0x12ba	; 0x12ba <MCP2515_bit_modify>
			break;
     ca6:	0d c0       	rjmp	.+26     	; 0xcc2 <CMU_PollandProcess_RxBuffers+0x5a>
		case 3:					//both rxb0 and rxb1 have a message
			CMU_process_inbound_message(MCP2515_RXB1, cmu);
     ca8:	be 01       	movw	r22, r28
     caa:	80 e7       	ldi	r24, 0x70	; 112
     cac:	0e 94 c4 05 	call	0xb88	; 0xb88 <CMU_process_inbound_message>
			CMU_process_inbound_message(MCP2515_RXB0, cmu);
     cb0:	be 01       	movw	r22, r28
     cb2:	80 e6       	ldi	r24, 0x60	; 96
     cb4:	0e 94 c4 05 	call	0xb88	; 0xb88 <CMU_process_inbound_message>
			MCP2515_bit_modify(MCP2515_CANINTF,0x00, status);
     cb8:	43 e0       	ldi	r20, 0x03	; 3
     cba:	60 e0       	ldi	r22, 0x00	; 0
     cbc:	8c e2       	ldi	r24, 0x2C	; 44
     cbe:	0e 94 5d 09 	call	0x12ba	; 0x12ba <MCP2515_bit_modify>
			break;
		default:				//shouldn't occur, but treat as no messages waiting
			break;
	}
	
}
     cc2:	df 91       	pop	r29
     cc4:	cf 91       	pop	r28
     cc6:	08 95       	ret

00000cc8 <main>:
		flash_LED(2,RED_LED,100);
	}
}

int main(void)
{
     cc8:	cf 93       	push	r28
     cca:	df 93       	push	r29
     ccc:	cd b7       	in	r28, 0x3d	; 61
     cce:	de b7       	in	r29, 0x3e	; 62
     cd0:	64 97       	sbiw	r28, 0x14	; 20
     cd2:	0f b6       	in	r0, 0x3f	; 63
     cd4:	f8 94       	cli
     cd6:	de bf       	out	0x3e, r29	; 62
     cd8:	0f be       	out	0x3f, r0	; 63
     cda:	cd bf       	out	0x3d, r28	; 61
	SHUTDOWN_eeprom_write(EEPROM_FW_VERSION, 1002);
     cdc:	6a ee       	ldi	r22, 0xEA	; 234
     cde:	73 e0       	ldi	r23, 0x03	; 3
     ce0:	82 e0       	ldi	r24, 0x02	; 2
     ce2:	90 e0       	ldi	r25, 0x00	; 0
     ce4:	0e 94 ae 01 	call	0x35c	; 0x35c <SHUTDOWN_eeprom_write>
	SHUTDOWN_eeprom_write(EEPROM_DEVICE_ID, 2);
     ce8:	62 e0       	ldi	r22, 0x02	; 2
     cea:	70 e0       	ldi	r23, 0x00	; 0
     cec:	80 e0       	ldi	r24, 0x00	; 0
     cee:	90 e0       	ldi	r25, 0x00	; 0
     cf0:	0e 94 ae 01 	call	0x35c	; 0x35c <SHUTDOWN_eeprom_write>
	#else
		//round up by default
		__ticks_dc = (uint32_t)(ceil(fabs(__tmp)));
	#endif

	__builtin_avr_delay_cycles(__ticks_dc);
     cf4:	8f e3       	ldi	r24, 0x3F	; 63
     cf6:	9c e9       	ldi	r25, 0x9C	; 156
     cf8:	01 97       	sbiw	r24, 0x01	; 1
     cfa:	f1 f7       	brne	.-4      	; 0xcf8 <main+0x30>
     cfc:	00 c0       	rjmp	.+0      	; 0xcfe <main+0x36>
     cfe:	00 00       	nop
	
	_delay_ms(10);
	IO_init();
     d00:	0e 94 e7 01 	call	0x3ce	; 0x3ce <IO_init>
	Parameters_init();
     d04:	0e 94 b3 01 	call	0x366	; 0x366 <Parameters_init>
	CMU_Wake_reset();
     d08:	0e 94 25 02 	call	0x44a	; 0x44a <CMU_Wake_reset>
     d0c:	9f ef       	ldi	r25, 0xFF	; 255
     d0e:	20 e7       	ldi	r18, 0x70	; 112
     d10:	82 e0       	ldi	r24, 0x02	; 2
     d12:	91 50       	subi	r25, 0x01	; 1
     d14:	20 40       	sbci	r18, 0x00	; 0
     d16:	80 40       	sbci	r24, 0x00	; 0
     d18:	e1 f7       	brne	.-8      	; 0xd12 <main+0x4a>
     d1a:	00 c0       	rjmp	.+0      	; 0xd1c <main+0x54>
     d1c:	00 00       	nop
	_delay_ms(50);
	SPI_init();
     d1e:	0e 94 3f 0c 	call	0x187e	; 0x187e <SPI_init>
	init_cmuData(cmuData); //initialise our struct(s) with valid null data.
     d22:	8f e0       	ldi	r24, 0x0F	; 15
     d24:	91 e0       	ldi	r25, 0x01	; 1
     d26:	0e 94 cf 01 	call	0x39e	; 0x39e <init_cmuData>
	CAN_init();	//enable this for AVR CAN
     d2a:	0e 94 5d 00 	call	0xba	; 0xba <CAN_init>
	MCP2515_init();
     d2e:	0e 94 75 09 	call	0x12ea	; 0x12ea <MCP2515_init>
	PCINT_init();
     d32:	0e 94 c4 01 	call	0x388	; 0x388 <PCINT_init>
	timer_init();
     d36:	0e 94 f6 01 	call	0x3ec	; 0x3ec <timer_init>
	CAN_RXInit(5, 4, 0, 0);
     d3a:	e1 2c       	mov	r14, r1
     d3c:	f1 2c       	mov	r15, r1
     d3e:	87 01       	movw	r16, r14
     d40:	20 e0       	ldi	r18, 0x00	; 0
     d42:	30 e0       	ldi	r19, 0x00	; 0
     d44:	a9 01       	movw	r20, r18
     d46:	64 e0       	ldi	r22, 0x04	; 4
     d48:	85 e0       	ldi	r24, 0x05	; 5
     d4a:	0e 94 b3 00 	call	0x166	; 0x166 <CAN_RXInit>
    //mark the transmit buffer as free. seems hacky, but the first interrupt never actually sets, seeing as the tx buffers were never actually busy.
	MCP2515_reg_write(MCP2515_CANINTF, 0b00000000);		
     d4e:	60 e0       	ldi	r22, 0x00	; 0
     d50:	8c e2       	ldi	r24, 0x2C	; 44
     d52:	0e 94 46 09 	call	0x128c	; 0x128c <MCP2515_reg_write>
	sei();
     d56:	78 94       	sei
	CMUAudit = 0;
     d58:	10 92 08 01 	sts	0x0108, r1	; 0x800108 <__data_end>

	uint8_t status = 0; 
     d5c:	19 82       	std	Y+1, r1	; 0x01
	MCP2515_FilterInit(0, AUDIT_RESPONSE); //setup the filter to receive audit responses
     d5e:	43 e1       	ldi	r20, 0x13	; 19
     d60:	50 e0       	ldi	r21, 0x00	; 0
     d62:	60 e0       	ldi	r22, 0x00	; 0
     d64:	70 e0       	ldi	r23, 0x00	; 0
     d66:	80 e0       	ldi	r24, 0x00	; 0
     d68:	0e 94 09 0a 	call	0x1412	; 0x1412 <MCP2515_FilterInit>
	MCP2515_RXInit(0, 0); //setup the buffer to match to the packet type bits
     d6c:	40 e0       	ldi	r20, 0x00	; 0
     d6e:	50 e0       	ldi	r21, 0x00	; 0
     d70:	ba 01       	movw	r22, r20
     d72:	80 e0       	ldi	r24, 0x00	; 0
     d74:	0e 94 34 0b 	call	0x1668	; 0x1668 <MCP2515_RXInit>
     d78:	9f ef       	ldi	r25, 0xFF	; 255
     d7a:	20 e7       	ldi	r18, 0x70	; 112
     d7c:	82 e0       	ldi	r24, 0x02	; 2
     d7e:	91 50       	subi	r25, 0x01	; 1
     d80:	20 40       	sbci	r18, 0x00	; 0
     d82:	80 40       	sbci	r24, 0x00	; 0
     d84:	e1 f7       	brne	.-8      	; 0xd7e <main+0xb6>
     d86:	00 c0       	rjmp	.+0      	; 0xd88 <main+0xc0>
     d88:	00 00       	nop
	_delay_ms(50);
	CMU_Wake_set();
     d8a:	0e 94 21 02 	call	0x442	; 0x442 <CMU_Wake_set>
	LED_on(RED_LED);
     d8e:	81 e0       	ldi	r24, 0x01	; 1
     d90:	0e 94 2d 05 	call	0xa5a	; 0xa5a <LED_on>
	HEARTBEATCOUNTER = 0;
     d94:	1a ba       	out	0x1a, r1	; 26
	CMU_WAKE_TIMER = 0;
     d96:	19 ba       	out	0x19, r1	; 25
    //if the number of registered CMU does not match the required number
	while(CMUAudit != CMU_COUNT)
     d98:	2e c0       	rjmp	.+92     	; 0xdf6 <main+0x12e>
	{
		flash_LED(1,YELLOW_LED,50);
     d9a:	42 e3       	ldi	r20, 0x32	; 50
     d9c:	60 e0       	ldi	r22, 0x00	; 0
     d9e:	81 e0       	ldi	r24, 0x01	; 1
     da0:	0e 94 3f 05 	call	0xa7e	; 0xa7e <flash_LED>
        //the &status is just dummy data so in case the function is written wrong, no harm should come to RAM
		MCP2515_TX(MCP2515_findFreeTxBuffer(), 0, &status, ((uint32_t)1<<27)|((uint32_t)DEVICE_ID<<18)|AUDIT_REQUEST );
     da4:	0e 94 f2 09 	call	0x13e4	; 0x13e4 <MCP2515_findFreeTxBuffer>
     da8:	01 e1       	ldi	r16, 0x11	; 17
     daa:	10 e0       	ldi	r17, 0x00	; 0
     dac:	24 e0       	ldi	r18, 0x04	; 4
     dae:	38 e0       	ldi	r19, 0x08	; 8
     db0:	ae 01       	movw	r20, r28
     db2:	4f 5f       	subi	r20, 0xFF	; 255
     db4:	5f 4f       	sbci	r21, 0xFF	; 255
     db6:	60 e0       	ldi	r22, 0x00	; 0
     db8:	0e 94 c0 0b 	call	0x1780	; 0x1780 <MCP2515_TX>
     dbc:	8f e1       	ldi	r24, 0x1F	; 31
     dbe:	9e e4       	ldi	r25, 0x4E	; 78
     dc0:	01 97       	sbiw	r24, 0x01	; 1
     dc2:	f1 f7       	brne	.-4      	; 0xdc0 <main+0xf8>
     dc4:	00 c0       	rjmp	.+0      	; 0xdc6 <main+0xfe>
     dc6:	00 00       	nop
		_delay_ms(5);
        // If the time the checking for the CMU responses are over 1 second
		if(CMU_WAKE_TIMER > TIM_1_SEC)error_state(ERROR_CMU_TIMEOUT);
     dc8:	89 b3       	in	r24, 0x19	; 25
     dca:	8e 33       	cpi	r24, 0x3E	; 62
     dcc:	18 f0       	brcs	.+6      	; 0xdd4 <main+0x10c>
     dce:	85 e0       	ldi	r24, 0x05	; 5
     dd0:	0e 94 8b 05 	call	0xb16	; 0xb16 <error_state>
		if(STATUS_REG & MCP2515_DataWaiting)
     dd4:	f7 9b       	sbis	0x1e, 7	; 30
     dd6:	0f c0       	rjmp	.+30     	; 0xdf6 <main+0x12e>
		{
			status = MCP2515_reg_read(MCP2515_CANINTF);
     dd8:	8c e2       	ldi	r24, 0x2C	; 44
     dda:	0e 94 e3 09 	call	0x13c6	; 0x13c6 <MCP2515_reg_read>
     dde:	89 83       	std	Y+1, r24	; 0x01
			if(status & 3)
     de0:	83 70       	andi	r24, 0x03	; 3
     de2:	21 f0       	breq	.+8      	; 0xdec <main+0x124>
			{
                //if the program has indicated there is data waiting on the MCP2515, process this data.
				CMU_PollandProcess_RxBuffers(cmuData);
     de4:	8f e0       	ldi	r24, 0x0F	; 15
     de6:	91 e0       	ldi	r25, 0x01	; 1
     de8:	0e 94 34 06 	call	0xc68	; 0xc68 <CMU_PollandProcess_RxBuffers>
			}
			STATUS_REG &= ~(MCP2515_DataWaiting);
     dec:	f7 98       	cbi	0x1e, 7	; 30
			MCP2515_reg_write(MCP2515_CANINTF, 0b00000000);
     dee:	60 e0       	ldi	r22, 0x00	; 0
     df0:	8c e2       	ldi	r24, 0x2C	; 44
     df2:	0e 94 46 09 	call	0x128c	; 0x128c <MCP2515_reg_write>
	CMU_Wake_set();
	LED_on(RED_LED);
	HEARTBEATCOUNTER = 0;
	CMU_WAKE_TIMER = 0;
    //if the number of registered CMU does not match the required number
	while(CMUAudit != CMU_COUNT)
     df6:	80 91 08 01 	lds	r24, 0x0108	; 0x800108 <__data_end>
     dfa:	83 30       	cpi	r24, 0x03	; 3
     dfc:	71 f6       	brne	.-100    	; 0xd9a <main+0xd2>
			STATUS_REG &= ~(MCP2515_DataWaiting);
			MCP2515_reg_write(MCP2515_CANINTF, 0b00000000);
		}
	}
	
	LED_off(RED_LED);
     dfe:	81 e0       	ldi	r24, 0x01	; 1
     e00:	0e 94 36 05 	call	0xa6c	; 0xa6c <LED_off>
	CMU_Wake_reset();
     e04:	0e 94 25 02 	call	0x44a	; 0x44a <CMU_Wake_reset>
	flash_LED(2,YELLOW_LED,200);
     e08:	48 ec       	ldi	r20, 0xC8	; 200
     e0a:	60 e0       	ldi	r22, 0x00	; 0
     e0c:	82 e0       	ldi	r24, 0x02	; 2
     e0e:	0e 94 3f 05 	call	0xa7e	; 0xa7e <flash_LED>
     e12:	9f ef       	ldi	r25, 0xFF	; 255
     e14:	29 e6       	ldi	r18, 0x69	; 105
     e16:	88 e1       	ldi	r24, 0x18	; 24
     e18:	91 50       	subi	r25, 0x01	; 1
     e1a:	20 40       	sbci	r18, 0x00	; 0
     e1c:	80 40       	sbci	r24, 0x00	; 0
     e1e:	e1 f7       	brne	.-8      	; 0xe18 <main+0x150>
     e20:	00 c0       	rjmp	.+0      	; 0xe22 <main+0x15a>
     e22:	00 00       	nop
	//MCP2515_FilterInit(0, 0);
	//MCP2515_FilterInit(1, 0);
	//MCP2515_RXInit(0, 0);	//setup the buffer to match to the packet type bits
	//MCP2515_RXInit(1, 0);	//setup the buffer to match to the packet type bits
	
	while(!(STATUS_REG & MODE_HEARTBEATRECVD));
     e24:	f2 9b       	sbis	0x1e, 2	; 30
     e26:	fe cf       	rjmp	.-4      	; 0xe24 <main+0x15c>
	CMUTimeToScan = 1;
     e28:	81 e0       	ldi	r24, 0x01	; 1
     e2a:	80 93 0b 01 	sts	0x010B, r24	; 0x80010b <CMUTimeToScan>
			uint16_t max_volt = 0x00;
			uint32_t avgVSum = 0;
			uint32_t avgTSum = 0;
			for(uint8_t i = 0; i<CMU_COUNT; i++)
			{
				TX_cellVoltage(cmuData[i], &max_volt, &min_volt, &avgVSum);
     e2e:	4e 01       	movw	r8, r28
     e30:	97 e0       	ldi	r25, 0x07	; 7
     e32:	89 0e       	add	r8, r25
     e34:	91 1c       	adc	r9, r1
     e36:	3e 01       	movw	r6, r28
     e38:	2d e0       	ldi	r18, 0x0D	; 13
     e3a:	62 0e       	add	r6, r18
     e3c:	71 1c       	adc	r7, r1
     e3e:	2e 01       	movw	r4, r28
     e40:	8b e0       	ldi	r24, 0x0B	; 11
     e42:	48 0e       	add	r4, r24
     e44:	51 1c       	adc	r5, r1
				TX_cellTemps(cmuData[i], &max_temp, &min_temp, &avgTSum);
     e46:	1e 01       	movw	r2, r28
     e48:	91 e1       	ldi	r25, 0x11	; 17
     e4a:	29 0e       	add	r2, r25
     e4c:	31 1c       	adc	r3, r1
     e4e:	ce 01       	movw	r24, r28
     e50:	0f 96       	adiw	r24, 0x0f	; 15
     e52:	9c 8b       	std	Y+20, r25	; 0x14
     e54:	8b 8b       	std	Y+19, r24	; 0x13
	CMUTimeToScan = 1;
	
    // Loop forever
    while(1)
    {
		if(STATUS_REG & MODE_BALANCING)
     e56:	f1 9b       	sbis	0x1e, 1	; 30
     e58:	19 c0       	rjmp	.+50     	; 0xe8c <main+0x1c4>
		{
			uint8_t balanceInstruction[5] = { (uint8_t)(3700>>8),(uint8_t)(3700),45,0,0};
     e5a:	85 e0       	ldi	r24, 0x05	; 5
     e5c:	e2 e0       	ldi	r30, 0x02	; 2
     e5e:	f1 e0       	ldi	r31, 0x01	; 1
     e60:	de 01       	movw	r26, r28
     e62:	12 96       	adiw	r26, 0x02	; 2
     e64:	01 90       	ld	r0, Z+
     e66:	0d 92       	st	X+, r0
     e68:	8a 95       	dec	r24
     e6a:	e1 f7       	brne	.-8      	; 0xe64 <main+0x19c>
			MCP2515_TX(MCP2515_findFreeTxBuffer(),sizeof(balanceInstruction),balanceInstruction,((uint32_t)1<<27)|((uint32_t)DEVICE_ID<<18)|BALANCE_ON);
     e6c:	0e 94 f2 09 	call	0x13e4	; 0x13e4 <MCP2515_findFreeTxBuffer>
     e70:	04 e1       	ldi	r16, 0x14	; 20
     e72:	10 e0       	ldi	r17, 0x00	; 0
     e74:	24 e0       	ldi	r18, 0x04	; 4
     e76:	38 e0       	ldi	r19, 0x08	; 8
     e78:	ae 01       	movw	r20, r28
     e7a:	4e 5f       	subi	r20, 0xFE	; 254
     e7c:	5f 4f       	sbci	r21, 0xFF	; 255
     e7e:	65 e0       	ldi	r22, 0x05	; 5
     e80:	0e 94 c0 0b 	call	0x1780	; 0x1780 <MCP2515_TX>
			LED_on(YELLOW_LED);
     e84:	80 e0       	ldi	r24, 0x00	; 0
     e86:	0e 94 2d 05 	call	0xa5a	; 0xa5a <LED_on>
     e8a:	03 c0       	rjmp	.+6      	; 0xe92 <main+0x1ca>
		}
		else
		{
			LED_off(YELLOW_LED);
     e8c:	80 e0       	ldi	r24, 0x00	; 0
     e8e:	0e 94 36 05 	call	0xa6c	; 0xa6c <LED_off>
		}
		
		if(CMUTimeToScan) //if the program indicates that we will need new cell information, send wake signals.
     e92:	80 91 0b 01 	lds	r24, 0x010B	; 0x80010b <CMUTimeToScan>
     e96:	88 23       	and	r24, r24
     e98:	99 f1       	breq	.+102    	; 0xf00 <main+0x238>
		{
			CMU_data_count = 0;
     e9a:	10 92 09 01 	sts	0x0109, r1	; 0x800109 <CMU_data_count>
			CMU_Wake_set();
     e9e:	0e 94 21 02 	call	0x442	; 0x442 <CMU_Wake_set>
     ea2:	8f e1       	ldi	r24, 0x1F	; 31
     ea4:	9e e4       	ldi	r25, 0x4E	; 78
     ea6:	01 97       	sbiw	r24, 0x01	; 1
     ea8:	f1 f7       	brne	.-4      	; 0xea6 <main+0x1de>
     eaa:	00 c0       	rjmp	.+0      	; 0xeac <main+0x1e4>
     eac:	00 00       	nop
			_delay_ms(5);
			if((STATUS_REG & MODE_HEARTBEATRECVD)==0)
     eae:	f2 9b       	sbis	0x1e, 2	; 30
			{
				STATUS_REG &= ~MODE_BALANCING;
     eb0:	f1 98       	cbi	0x1e, 1	; 30
				//send alarm code here
				//this is an error state
			}
			if(STATUS_REG & MODE_BALANCING)
     eb2:	f1 9b       	sbis	0x1e, 1	; 30
     eb4:	03 c0       	rjmp	.+6      	; 0xebc <main+0x1f4>
			{ CMU_Wake_set(); }
     eb6:	0e 94 21 02 	call	0x442	; 0x442 <CMU_Wake_set>
     eba:	02 c0       	rjmp	.+4      	; 0xec0 <main+0x1f8>
			else
			{ CMU_Wake_reset(); }
     ebc:	0e 94 25 02 	call	0x44a	; 0x44a <CMU_Wake_reset>

			LED_on(RED_LED);
     ec0:	81 e0       	ldi	r24, 0x01	; 1
     ec2:	0e 94 2d 05 	call	0xa5a	; 0xa5a <LED_on>
			
			CMU_WAKE_TIMER = 0;
     ec6:	19 ba       	out	0x19, r1	; 25
			do
			{
                //give all CMUs a total of 1 second to respond
				if(CMU_WAKE_TIMER > TIM_1_SEC) error_state(ERROR_CMU_TIMEOUT);
     ec8:	89 b3       	in	r24, 0x19	; 25
     eca:	8e 33       	cpi	r24, 0x3E	; 62
     ecc:	18 f0       	brcs	.+6      	; 0xed4 <main+0x20c>
     ece:	85 e0       	ldi	r24, 0x05	; 5
     ed0:	0e 94 8b 05 	call	0xb16	; 0xb16 <error_state>
				if(STATUS_REG & MCP2515_DataWaiting)
     ed4:	f7 9b       	sbis	0x1e, 7	; 30
     ed6:	0b c0       	rjmp	.+22     	; 0xeee <main+0x226>
				{
					status = MCP2515_reg_read(MCP2515_CANINTF);
     ed8:	8c e2       	ldi	r24, 0x2C	; 44
     eda:	0e 94 e3 09 	call	0x13c6	; 0x13c6 <MCP2515_reg_read>
     ede:	89 83       	std	Y+1, r24	; 0x01
					if(status & 3)
     ee0:	83 70       	andi	r24, 0x03	; 3
     ee2:	29 f0       	breq	.+10     	; 0xeee <main+0x226>
					{
						CMU_PollandProcess_RxBuffers(cmuData);	//if the program has indicated there is data waiting on the MCP2515, process this data.
     ee4:	8f e0       	ldi	r24, 0x0F	; 15
     ee6:	91 e0       	ldi	r25, 0x01	; 1
     ee8:	0e 94 34 06 	call	0xc68	; 0xc68 <CMU_PollandProcess_RxBuffers>
						STATUS_REG &= ~(MCP2515_DataWaiting);
     eec:	f7 98       	cbi	0x1e, 7	; 30
					}
				}
			}while(CMU_data_count != CMU_COUNT*4);
     eee:	80 91 09 01 	lds	r24, 0x0109	; 0x800109 <CMU_data_count>
     ef2:	8c 30       	cpi	r24, 0x0C	; 12
     ef4:	49 f7       	brne	.-46     	; 0xec8 <main+0x200>
				
			LED_off(RED_LED);
     ef6:	81 e0       	ldi	r24, 0x01	; 1
     ef8:	0e 94 36 05 	call	0xa6c	; 0xa6c <LED_off>
			CMUTimeToScan = 0;
     efc:	10 92 0b 01 	sts	0x010B, r1	; 0x80010b <CMUTimeToScan>
			
		}
		if(STATUS_REG & MODE_HEARTBEATRECVD)
     f00:	f2 9b       	sbis	0x1e, 2	; 30
     f02:	8a c0       	rjmp	.+276    	; 0x1018 <main+0x350>
		{
			uint16_t min_temp = 0xFFFF;		//set it to maximum value
     f04:	8f ef       	ldi	r24, 0xFF	; 255
     f06:	9f ef       	ldi	r25, 0xFF	; 255
     f08:	9a 8b       	std	Y+18, r25	; 0x12
     f0a:	89 8b       	std	Y+17, r24	; 0x11
			uint16_t max_temp = 0x00;		//set it to minimum value
     f0c:	18 8a       	std	Y+16, r1	; 0x10
     f0e:	1f 86       	std	Y+15, r1	; 0x0f
			uint16_t min_volt = 0xFFFF;
     f10:	9e 87       	std	Y+14, r25	; 0x0e
     f12:	8d 87       	std	Y+13, r24	; 0x0d
			uint16_t max_volt = 0x00;
     f14:	1c 86       	std	Y+12, r1	; 0x0c
     f16:	1b 86       	std	Y+11, r1	; 0x0b
			uint32_t avgVSum = 0;
     f18:	1f 82       	std	Y+7, r1	; 0x07
     f1a:	18 86       	std	Y+8, r1	; 0x08
     f1c:	19 86       	std	Y+9, r1	; 0x09
     f1e:	1a 86       	std	Y+10, r1	; 0x0a
			uint32_t avgTSum = 0;
     f20:	1a 82       	std	Y+2, r1	; 0x02
     f22:	1b 82       	std	Y+3, r1	; 0x03
     f24:	1c 82       	std	Y+4, r1	; 0x04
     f26:	1d 82       	std	Y+5, r1	; 0x05
     f28:	e1 2c       	mov	r14, r1
     f2a:	f1 2c       	mov	r15, r1
			for(uint8_t i = 0; i<CMU_COUNT; i++)
			{
				TX_cellVoltage(cmuData[i], &max_volt, &min_volt, &avgVSum);
				TX_cellTemps(cmuData[i], &max_temp, &min_temp, &avgTSum);
     f2c:	6e 01       	movw	r12, r28
     f2e:	92 e0       	ldi	r25, 0x02	; 2
     f30:	c9 0e       	add	r12, r25
     f32:	d1 1c       	adc	r13, r1
			uint16_t max_volt = 0x00;
			uint32_t avgVSum = 0;
			uint32_t avgTSum = 0;
			for(uint8_t i = 0; i<CMU_COUNT; i++)
			{
				TX_cellVoltage(cmuData[i], &max_volt, &min_volt, &avgVSum);
     f34:	9f 92       	push	r9
     f36:	8f 92       	push	r8
     f38:	7f 92       	push	r7
     f3a:	6f 92       	push	r6
     f3c:	5f 92       	push	r5
     f3e:	4f 92       	push	r4
     f40:	22 e2       	ldi	r18, 0x22	; 34
     f42:	2e 9d       	mul	r18, r14
     f44:	80 01       	movw	r16, r0
     f46:	2f 9d       	mul	r18, r15
     f48:	10 0d       	add	r17, r0
     f4a:	11 24       	eor	r1, r1
     f4c:	01 5f       	subi	r16, 0xF1	; 241
     f4e:	1e 4f       	sbci	r17, 0xFE	; 254
     f50:	8d b7       	in	r24, 0x3d	; 61
     f52:	9e b7       	in	r25, 0x3e	; 62
     f54:	82 97       	sbiw	r24, 0x22	; 34
     f56:	0f b6       	in	r0, 0x3f	; 63
     f58:	f8 94       	cli
     f5a:	9e bf       	out	0x3e, r25	; 62
     f5c:	0f be       	out	0x3f, r0	; 63
     f5e:	8d bf       	out	0x3d, r24	; 61
     f60:	ad b7       	in	r26, 0x3d	; 61
     f62:	be b7       	in	r27, 0x3e	; 62
     f64:	11 96       	adiw	r26, 0x01	; 1
     f66:	82 e2       	ldi	r24, 0x22	; 34
     f68:	f8 01       	movw	r30, r16
     f6a:	01 90       	ld	r0, Z+
     f6c:	0d 92       	st	X+, r0
     f6e:	8a 95       	dec	r24
     f70:	e1 f7       	brne	.-8      	; 0xf6a <main+0x2a2>
     f72:	0e 94 cd 03 	call	0x79a	; 0x79a <TX_cellVoltage>
				TX_cellTemps(cmuData[i], &max_temp, &min_temp, &avgTSum);
     f76:	0f b6       	in	r0, 0x3f	; 63
     f78:	f8 94       	cli
     f7a:	de bf       	out	0x3e, r29	; 62
     f7c:	0f be       	out	0x3f, r0	; 63
     f7e:	cd bf       	out	0x3d, r28	; 61
     f80:	df 92       	push	r13
     f82:	cf 92       	push	r12
     f84:	3f 92       	push	r3
     f86:	2f 92       	push	r2
     f88:	9c 89       	ldd	r25, Y+20	; 0x14
     f8a:	9f 93       	push	r25
     f8c:	2b 89       	ldd	r18, Y+19	; 0x13
     f8e:	2f 93       	push	r18
     f90:	8d b7       	in	r24, 0x3d	; 61
     f92:	9e b7       	in	r25, 0x3e	; 62
     f94:	82 97       	sbiw	r24, 0x22	; 34
     f96:	0f b6       	in	r0, 0x3f	; 63
     f98:	f8 94       	cli
     f9a:	9e bf       	out	0x3e, r25	; 62
     f9c:	0f be       	out	0x3f, r0	; 63
     f9e:	8d bf       	out	0x3d, r24	; 61
     fa0:	ad b7       	in	r26, 0x3d	; 61
     fa2:	be b7       	in	r27, 0x3e	; 62
     fa4:	11 96       	adiw	r26, 0x01	; 1
     fa6:	82 e2       	ldi	r24, 0x22	; 34
     fa8:	f8 01       	movw	r30, r16
     faa:	01 90       	ld	r0, Z+
     fac:	0d 92       	st	X+, r0
     fae:	8a 95       	dec	r24
     fb0:	e1 f7       	brne	.-8      	; 0xfaa <main+0x2e2>
     fb2:	0e 94 07 03 	call	0x60e	; 0x60e <TX_cellTemps>
     fb6:	9f ef       	ldi	r25, 0xFF	; 255
     fb8:	e9 1a       	sub	r14, r25
     fba:	f9 0a       	sbc	r15, r25
			uint16_t max_temp = 0x00;		//set it to minimum value
			uint16_t min_volt = 0xFFFF;
			uint16_t max_volt = 0x00;
			uint32_t avgVSum = 0;
			uint32_t avgTSum = 0;
			for(uint8_t i = 0; i<CMU_COUNT; i++)
     fbc:	0f b6       	in	r0, 0x3f	; 63
     fbe:	f8 94       	cli
     fc0:	de bf       	out	0x3e, r29	; 62
     fc2:	0f be       	out	0x3f, r0	; 63
     fc4:	cd bf       	out	0x3d, r28	; 61
     fc6:	93 e0       	ldi	r25, 0x03	; 3
     fc8:	e9 16       	cp	r14, r25
     fca:	f1 04       	cpc	r15, r1
     fcc:	09 f0       	breq	.+2      	; 0xfd0 <main+0x308>
     fce:	b2 cf       	rjmp	.-156    	; 0xf34 <main+0x26c>
			{
				TX_cellVoltage(cmuData[i], &max_volt, &min_volt, &avgVSum);
				TX_cellTemps(cmuData[i], &max_temp, &min_temp, &avgTSum);
			}
			TX_globalData( max_volt, min_volt, max_temp, min_temp, avgVSum, avgTSum);
     fd0:	aa 80       	ldd	r10, Y+2	; 0x02
     fd2:	bb 80       	ldd	r11, Y+3	; 0x03
     fd4:	cc 80       	ldd	r12, Y+4	; 0x04
     fd6:	dd 80       	ldd	r13, Y+5	; 0x05
     fd8:	ef 80       	ldd	r14, Y+7	; 0x07
     fda:	f8 84       	ldd	r15, Y+8	; 0x08
     fdc:	09 85       	ldd	r16, Y+9	; 0x09
     fde:	1a 85       	ldd	r17, Y+10	; 0x0a
     fe0:	29 89       	ldd	r18, Y+17	; 0x11
     fe2:	3a 89       	ldd	r19, Y+18	; 0x12
     fe4:	4f 85       	ldd	r20, Y+15	; 0x0f
     fe6:	58 89       	ldd	r21, Y+16	; 0x10
     fe8:	6d 85       	ldd	r22, Y+13	; 0x0d
     fea:	7e 85       	ldd	r23, Y+14	; 0x0e
     fec:	8b 85       	ldd	r24, Y+11	; 0x0b
     fee:	9c 85       	ldd	r25, Y+12	; 0x0c
     ff0:	0e 94 92 04 	call	0x924	; 0x924 <TX_globalData>
			//CoulombCount_readAndUpdate();
			STATUS_REG &= ~MODE_HEARTBEATRECVD;
     ff4:	f2 98       	cbi	0x1e, 2	; 30
			if(max_volt > CELL_V_ERR_MAX || min_volt < CELL_V_ERR_MIN || max_temp > CELL_T_ERR_MAX || min_temp < CELL_T_ERR_MIN)
     ff6:	8b 85       	ldd	r24, Y+11	; 0x0b
     ff8:	9c 85       	ldd	r25, Y+12	; 0x0c
     ffa:	85 39       	cpi	r24, 0x95	; 149
     ffc:	91 41       	sbci	r25, 0x11	; 17
     ffe:	48 f4       	brcc	.+18     	; 0x1012 <main+0x34a>
    1000:	8d 85       	ldd	r24, Y+13	; 0x0d
    1002:	9e 85       	ldd	r25, Y+14	; 0x0e
    1004:	84 35       	cpi	r24, 0x54	; 84
    1006:	9b 40       	sbci	r25, 0x0B	; 11
    1008:	20 f0       	brcs	.+8      	; 0x1012 <main+0x34a>
    100a:	8f 85       	ldd	r24, Y+15	; 0x0f
    100c:	98 89       	ldd	r25, Y+16	; 0x10
    100e:	c3 97       	sbiw	r24, 0x33	; 51
    1010:	18 f0       	brcs	.+6      	; 0x1018 <main+0x350>
				error_state(ERROR_V_T_OOR);
    1012:	81 e0       	ldi	r24, 0x01	; 1
    1014:	0e 94 8b 05 	call	0xb16	; 0xb16 <error_state>
		}
		CAN_RXInit(5,0,CCmsk,CC);
    1018:	e1 2c       	mov	r14, r1
    101a:	f1 2c       	mov	r15, r1
    101c:	00 e0       	ldi	r16, 0x00	; 0
    101e:	18 e0       	ldi	r17, 0x08	; 8
    1020:	20 e0       	ldi	r18, 0x00	; 0
    1022:	30 e0       	ldi	r19, 0x00	; 0
    1024:	40 e0       	ldi	r20, 0x00	; 0
    1026:	58 e0       	ldi	r21, 0x08	; 8
    1028:	60 e0       	ldi	r22, 0x00	; 0
    102a:	85 e0       	ldi	r24, 0x05	; 5
    102c:	0e 94 b3 00 	call	0x166	; 0x166 <CAN_RXInit>
    1030:	8f ef       	ldi	r24, 0xFF	; 255
    1032:	90 e7       	ldi	r25, 0x70	; 112
    1034:	22 e0       	ldi	r18, 0x02	; 2
    1036:	81 50       	subi	r24, 0x01	; 1
    1038:	90 40       	sbci	r25, 0x00	; 0
    103a:	20 40       	sbci	r18, 0x00	; 0
    103c:	e1 f7       	brne	.-8      	; 0x1036 <main+0x36e>
    103e:	00 c0       	rjmp	.+0      	; 0x1040 <main+0x378>
    1040:	00 00       	nop
    1042:	09 cf       	rjmp	.-494    	; 0xe56 <main+0x18e>

00001044 <__vector_22>:
//	//upon signal of the RX0 buffer full pin,
//	PCIFR |= (1<<PCIE3);				//should clear on this execution routine.
//}

ISR(PCINT0_vect)
{
    1044:	1f 92       	push	r1
    1046:	0f 92       	push	r0
    1048:	0f b6       	in	r0, 0x3f	; 63
    104a:	0f 92       	push	r0
    104c:	11 24       	eor	r1, r1
    104e:	2f 93       	push	r18
    1050:	3f 93       	push	r19
    1052:	4f 93       	push	r20
    1054:	5f 93       	push	r21
    1056:	6f 93       	push	r22
    1058:	7f 93       	push	r23
    105a:	8f 93       	push	r24
    105c:	9f 93       	push	r25
    105e:	af 93       	push	r26
    1060:	bf 93       	push	r27
    1062:	ef 93       	push	r30
    1064:	ff 93       	push	r31
	//upon signal of the INT pin.
	LED_off(RED_LED);
    1066:	81 e0       	ldi	r24, 0x01	; 1
    1068:	0e 94 36 05 	call	0xa6c	; 0xa6c <LED_off>
	if(PINB & ~(1<<PINB3))		//if the pin is low
    106c:	83 b1       	in	r24, 0x03	; 3
    106e:	87 7f       	andi	r24, 0xF7	; 247
    1070:	09 f0       	breq	.+2      	; 0x1074 <__vector_22+0x30>
	{
		STATUS_REG |= MCP2515_DataWaiting;
    1072:	f7 9a       	sbi	0x1e, 7	; 30
	}
	PCIFR |= (1<<PCIE0);								//clear the interrupt.
    1074:	d8 9a       	sbi	0x1b, 0	; 27
}
    1076:	ff 91       	pop	r31
    1078:	ef 91       	pop	r30
    107a:	bf 91       	pop	r27
    107c:	af 91       	pop	r26
    107e:	9f 91       	pop	r25
    1080:	8f 91       	pop	r24
    1082:	7f 91       	pop	r23
    1084:	6f 91       	pop	r22
    1086:	5f 91       	pop	r21
    1088:	4f 91       	pop	r20
    108a:	3f 91       	pop	r19
    108c:	2f 91       	pop	r18
    108e:	0f 90       	pop	r0
    1090:	0f be       	out	0x3f, r0	; 63
    1092:	0f 90       	pop	r0
    1094:	1f 90       	pop	r1
    1096:	18 95       	reti

00001098 <__vector_18>:

ISR(CAN_INT_vect)
{
    1098:	1f 92       	push	r1
    109a:	0f 92       	push	r0
    109c:	0f b6       	in	r0, 0x3f	; 63
    109e:	0f 92       	push	r0
    10a0:	11 24       	eor	r1, r1
    10a2:	ef 92       	push	r14
    10a4:	ff 92       	push	r15
    10a6:	0f 93       	push	r16
    10a8:	1f 93       	push	r17
    10aa:	2f 93       	push	r18
    10ac:	3f 93       	push	r19
    10ae:	4f 93       	push	r20
    10b0:	5f 93       	push	r21
    10b2:	6f 93       	push	r22
    10b4:	7f 93       	push	r23
    10b6:	8f 93       	push	r24
    10b8:	9f 93       	push	r25
    10ba:	af 93       	push	r26
    10bc:	bf 93       	push	r27
    10be:	ef 93       	push	r30
    10c0:	ff 93       	push	r31
	//CANIDT4 is l
	if(CANSIT2 & (1 << SIT5))	//we received a CAN message on mob 5, which is set up to receive exclusively from the Chassis controller.
    10c2:	80 91 e0 00 	lds	r24, 0x00E0	; 0x8000e0 <__TEXT_REGION_LENGTH__+0x7e00e0>
    10c6:	85 ff       	sbrs	r24, 5
    10c8:	5f c0       	rjmp	.+190    	; 0x1188 <__stack+0x89>
	{
		CANPAGE = (5 << 4);			//set the canpage to the receiver MOB
    10ca:	80 e5       	ldi	r24, 0x50	; 80
    10cc:	80 93 ed 00 	sts	0x00ED, r24	; 0x8000ed <__TEXT_REGION_LENGTH__+0x7e00ed>
		CANSTMOB &= ~(1 << RXOK);	//unset the RXOK bit to clear the interrupt.
    10d0:	ee ee       	ldi	r30, 0xEE	; 238
    10d2:	f0 e0       	ldi	r31, 0x00	; 0
    10d4:	80 81       	ld	r24, Z
    10d6:	8f 7d       	andi	r24, 0xDF	; 223
    10d8:	80 83       	st	Z, r24
		if((CANIDT1 == ((1<<6)|(1<<4))) && (CANIDT2==deviceID) && ((CANIDT4>>3)==CC_HEARTBEAT) )	//if the received ID has a heartbeat packet
    10da:	80 91 f3 00 	lds	r24, 0x00F3	; 0x8000f3 <__TEXT_REGION_LENGTH__+0x7e00f3>
    10de:	80 35       	cpi	r24, 0x50	; 80
    10e0:	f1 f4       	brne	.+60     	; 0x111e <__stack+0x1f>
    10e2:	80 91 f2 00 	lds	r24, 0x00F2	; 0x8000f2 <__TEXT_REGION_LENGTH__+0x7e00f2>
    10e6:	90 e0       	ldi	r25, 0x00	; 0
    10e8:	20 91 75 01 	lds	r18, 0x0175	; 0x800175 <deviceID>
    10ec:	30 91 76 01 	lds	r19, 0x0176	; 0x800176 <deviceID+0x1>
    10f0:	82 17       	cp	r24, r18
    10f2:	93 07       	cpc	r25, r19
    10f4:	a1 f4       	brne	.+40     	; 0x111e <__stack+0x1f>
    10f6:	80 91 f0 00 	lds	r24, 0x00F0	; 0x8000f0 <__TEXT_REGION_LENGTH__+0x7e00f0>
    10fa:	86 95       	lsr	r24
    10fc:	86 95       	lsr	r24
    10fe:	86 95       	lsr	r24
    1100:	81 30       	cpi	r24, 0x01	; 1
    1102:	69 f4       	brne	.+26     	; 0x111e <__stack+0x1f>
		{
			STATUS_REG |= MODE_HEARTBEATRECVD;
    1104:	f2 9a       	sbi	0x1e, 2	; 30
			HEARTBEATCOUNTER = 0;
    1106:	1a ba       	out	0x1a, r1	; 26
			uint32_t heartbeat =	(uint32_t)CANMSG<<24;	//byte 0
    1108:	ea ef       	ldi	r30, 0xFA	; 250
    110a:	f0 e0       	ldi	r31, 0x00	; 0
    110c:	80 81       	ld	r24, Z
			heartbeat |= (uint32_t)CANMSG<<16;				//byte 1
    110e:	80 81       	ld	r24, Z
			heartbeat |= (uint32_t)CANMSG<<8;				//byte 2
    1110:	80 81       	ld	r24, Z
			heartbeat |= (uint32_t)CANMSG;					//byte 3
    1112:	80 81       	ld	r24, Z

			if((heartbeat&1) == 1)
    1114:	80 ff       	sbrs	r24, 0
    1116:	02 c0       	rjmp	.+4      	; 0x111c <__stack+0x1d>
				STATUS_REG |= MODE_BALANCING;
    1118:	f1 9a       	sbi	0x1e, 1	; 30
    111a:	01 c0       	rjmp	.+2      	; 0x111e <__stack+0x1f>
			else
				STATUS_REG &= ~MODE_BALANCING;
    111c:	f1 98       	cbi	0x1e, 1	; 30
			///considering we got a heartbeat, we will send voltages back here. TBA

		}
		if((CANIDT1 == ((1<<6)|(1<<4))) && (CANIDT2==deviceID) && ((CANIDT4>>3)==CC_MODE_CHANGE) )	//if the received ID has a mode change packet
    111e:	80 91 f3 00 	lds	r24, 0x00F3	; 0x8000f3 <__TEXT_REGION_LENGTH__+0x7e00f3>
    1122:	80 35       	cpi	r24, 0x50	; 80
    1124:	29 f5       	brne	.+74     	; 0x1170 <__stack+0x71>
    1126:	80 91 f2 00 	lds	r24, 0x00F2	; 0x8000f2 <__TEXT_REGION_LENGTH__+0x7e00f2>
    112a:	90 e0       	ldi	r25, 0x00	; 0
    112c:	20 91 75 01 	lds	r18, 0x0175	; 0x800175 <deviceID>
    1130:	30 91 76 01 	lds	r19, 0x0176	; 0x800176 <deviceID+0x1>
    1134:	82 17       	cp	r24, r18
    1136:	93 07       	cpc	r25, r19
    1138:	d9 f4       	brne	.+54     	; 0x1170 <__stack+0x71>
    113a:	80 91 f0 00 	lds	r24, 0x00F0	; 0x8000f0 <__TEXT_REGION_LENGTH__+0x7e00f0>
    113e:	86 95       	lsr	r24
    1140:	86 95       	lsr	r24
    1142:	86 95       	lsr	r24
    1144:	80 31       	cpi	r24, 0x10	; 16
    1146:	a1 f4       	brne	.+40     	; 0x1170 <__stack+0x71>
		{
			uint16_t modeAddress =	CANMSG<<8;	//byte 0
    1148:	ea ef       	ldi	r30, 0xFA	; 250
    114a:	f0 e0       	ldi	r31, 0x00	; 0
    114c:	80 81       	ld	r24, Z
    114e:	90 e0       	ldi	r25, 0x00	; 0
    1150:	98 2f       	mov	r25, r24
    1152:	88 27       	eor	r24, r24
			modeAddress |= CANMSG;				//byte 1
    1154:	30 81       	ld	r19, Z
			uint16_t modeValue	=	CANMSG<<8;	//byte 2
    1156:	40 81       	ld	r20, Z
			modeValue  |= CANMSG;				//byte 3
    1158:	20 81       	ld	r18, Z
			switch(modeAddress)
    115a:	83 2b       	or	r24, r19
    115c:	01 97       	sbiw	r24, 0x01	; 1
    115e:	41 f4       	brne	.+16     	; 0x1170 <__stack+0x71>
		}
		if((CANIDT1 == ((1<<6)|(1<<4))) && (CANIDT2==deviceID) && ((CANIDT4>>3)==CC_MODE_CHANGE) )	//if the received ID has a mode change packet
		{
			uint16_t modeAddress =	CANMSG<<8;	//byte 0
			modeAddress |= CANMSG;				//byte 1
			uint16_t modeValue	=	CANMSG<<8;	//byte 2
    1160:	82 2f       	mov	r24, r18
    1162:	90 e0       	ldi	r25, 0x00	; 0
			modeValue  |= CANMSG;				//byte 3
			switch(modeAddress)
			{
				case 1:
					if(modeValue)
    1164:	94 2b       	or	r25, r20
    1166:	89 2b       	or	r24, r25
    1168:	11 f0       	breq	.+4      	; 0x116e <__stack+0x6f>
						STATUS_REG |= MODE_BALANCING;
    116a:	f1 9a       	sbi	0x1e, 1	; 30
    116c:	01 c0       	rjmp	.+2      	; 0x1170 <__stack+0x71>
					else
						STATUS_REG &= ~MODE_BALANCING;
    116e:	f1 98       	cbi	0x1e, 1	; 30
				default:
					break;
			}

		}
		CAN_RXInit(5,0,CCmsk,CC);
    1170:	e1 2c       	mov	r14, r1
    1172:	f1 2c       	mov	r15, r1
    1174:	00 e0       	ldi	r16, 0x00	; 0
    1176:	18 e0       	ldi	r17, 0x08	; 8
    1178:	20 e0       	ldi	r18, 0x00	; 0
    117a:	30 e0       	ldi	r19, 0x00	; 0
    117c:	40 e0       	ldi	r20, 0x00	; 0
    117e:	58 e0       	ldi	r21, 0x08	; 8
    1180:	60 e0       	ldi	r22, 0x00	; 0
    1182:	85 e0       	ldi	r24, 0x05	; 5
    1184:	0e 94 b3 00 	call	0x166	; 0x166 <CAN_RXInit>

	}
	CANPAGE = (5 << 4);			//set the canpage to the receiver MOB
    1188:	80 e5       	ldi	r24, 0x50	; 80
    118a:	80 93 ed 00 	sts	0x00ED, r24	; 0x8000ed <__TEXT_REGION_LENGTH__+0x7e00ed>
	CANSTMOB &= ~(1 << RXOK);	//unset the RXOK bit to clear the interrupt.
    118e:	ee ee       	ldi	r30, 0xEE	; 238
    1190:	f0 e0       	ldi	r31, 0x00	; 0
    1192:	80 81       	ld	r24, Z
    1194:	8f 7d       	andi	r24, 0xDF	; 223
    1196:	80 83       	st	Z, r24
}
    1198:	ff 91       	pop	r31
    119a:	ef 91       	pop	r30
    119c:	bf 91       	pop	r27
    119e:	af 91       	pop	r26
    11a0:	9f 91       	pop	r25
    11a2:	8f 91       	pop	r24
    11a4:	7f 91       	pop	r23
    11a6:	6f 91       	pop	r22
    11a8:	5f 91       	pop	r21
    11aa:	4f 91       	pop	r20
    11ac:	3f 91       	pop	r19
    11ae:	2f 91       	pop	r18
    11b0:	1f 91       	pop	r17
    11b2:	0f 91       	pop	r16
    11b4:	ff 90       	pop	r15
    11b6:	ef 90       	pop	r14
    11b8:	0f 90       	pop	r0
    11ba:	0f be       	out	0x3f, r0	; 63
    11bc:	0f 90       	pop	r0
    11be:	1f 90       	pop	r1
    11c0:	18 95       	reti

000011c2 <__vector_17>:

ISR(TIMER0_OVF_vect)
{
    11c2:	1f 92       	push	r1
    11c4:	0f 92       	push	r0
    11c6:	0f b6       	in	r0, 0x3f	; 63
    11c8:	0f 92       	push	r0
    11ca:	11 24       	eor	r1, r1
    11cc:	2f 93       	push	r18
    11ce:	3f 93       	push	r19
    11d0:	4f 93       	push	r20
    11d2:	5f 93       	push	r21
    11d4:	6f 93       	push	r22
    11d6:	7f 93       	push	r23
    11d8:	8f 93       	push	r24
    11da:	9f 93       	push	r25
    11dc:	af 93       	push	r26
    11de:	bf 93       	push	r27
    11e0:	ef 93       	push	r30
    11e2:	ff 93       	push	r31
	timerCounter++;
    11e4:	80 91 0c 01 	lds	r24, 0x010C	; 0x80010c <timerCounter>
    11e8:	90 91 0d 01 	lds	r25, 0x010D	; 0x80010d <timerCounter+0x1>
    11ec:	01 96       	adiw	r24, 0x01	; 1
    11ee:	90 93 0d 01 	sts	0x010D, r25	; 0x80010d <timerCounter+0x1>
    11f2:	80 93 0c 01 	sts	0x010C, r24	; 0x80010c <timerCounter>
	HEARTBEATCOUNTER++;
    11f6:	8a b3       	in	r24, 0x1a	; 26
    11f8:	8f 5f       	subi	r24, 0xFF	; 255
    11fa:	8a bb       	out	0x1a, r24	; 26
	CMU_WAKE_TIMER++;
    11fc:	89 b3       	in	r24, 0x19	; 25
    11fe:	8f 5f       	subi	r24, 0xFF	; 255
    1200:	89 bb       	out	0x19, r24	; 25
	if(HEARTBEATCOUNTER > TIM_4_SEC && !(STATUS_REG & MODE_HEARTBEATRECVD))
    1202:	8a b3       	in	r24, 0x1a	; 26
    1204:	85 3f       	cpi	r24, 0xF5	; 245
    1206:	28 f0       	brcs	.+10     	; 0x1212 <__vector_17+0x50>
    1208:	f2 99       	sbic	0x1e, 2	; 30
    120a:	03 c0       	rjmp	.+6      	; 0x1212 <__vector_17+0x50>
	{
		error_state(ERROR_NO_HEARTBEAT);
    120c:	84 e0       	ldi	r24, 0x04	; 4
    120e:	0e 94 8b 05 	call	0xb16	; 0xb16 <error_state>
	}
	if(!CMUAllRegistered && timerCounter >= CMUAuditTimeout*61)
    1212:	80 91 0a 01 	lds	r24, 0x010A	; 0x80010a <CMUAllRegistered>
    1216:	81 11       	cpse	r24, r1
    1218:	14 c0       	rjmp	.+40     	; 0x1242 <__vector_17+0x80>
    121a:	80 91 00 01 	lds	r24, 0x0100	; 0x800100 <CMUAuditTimeout>
    121e:	2d e3       	ldi	r18, 0x3D	; 61
    1220:	82 9f       	mul	r24, r18
    1222:	c0 01       	movw	r24, r0
    1224:	11 24       	eor	r1, r1
    1226:	20 91 0c 01 	lds	r18, 0x010C	; 0x80010c <timerCounter>
    122a:	30 91 0d 01 	lds	r19, 0x010D	; 0x80010d <timerCounter+0x1>
    122e:	28 17       	cp	r18, r24
    1230:	39 07       	cpc	r19, r25
    1232:	38 f0       	brcs	.+14     	; 0x1242 <__vector_17+0x80>
	{
		//using the timer, we will re-wake all the CMU's approximately every CMUAuditTimeout*1 seconds.
		timerCounter = 0;
    1234:	10 92 0d 01 	sts	0x010D, r1	; 0x80010d <timerCounter+0x1>
    1238:	10 92 0c 01 	sts	0x010C, r1	; 0x80010c <timerCounter>
		CMUTimeToScan = 1; //this actually only triggers a new scan when in auditing mode.
    123c:	81 e0       	ldi	r24, 0x01	; 1
    123e:	80 93 0b 01 	sts	0x010B, r24	; 0x80010b <CMUTimeToScan>
	}
	if (timerCounter >= CMUScanInterval*61) //CMUInterval seconds,
    1242:	80 91 01 01 	lds	r24, 0x0101	; 0x800101 <CMUScanInterval>
    1246:	2d e3       	ldi	r18, 0x3D	; 61
    1248:	82 9f       	mul	r24, r18
    124a:	c0 01       	movw	r24, r0
    124c:	11 24       	eor	r1, r1
    124e:	20 91 0c 01 	lds	r18, 0x010C	; 0x80010c <timerCounter>
    1252:	30 91 0d 01 	lds	r19, 0x010D	; 0x80010d <timerCounter+0x1>
    1256:	28 17       	cp	r18, r24
    1258:	39 07       	cpc	r19, r25
    125a:	38 f0       	brcs	.+14     	; 0x126a <__vector_17+0xa8>
	{
		timerCounter = 0; //reset our counter
    125c:	10 92 0d 01 	sts	0x010D, r1	; 0x80010d <timerCounter+0x1>
    1260:	10 92 0c 01 	sts	0x010C, r1	; 0x80010c <timerCounter>
		CMUTimeToScan = 1; //set the flag that will trigger a scan routine on next flag.
    1264:	81 e0       	ldi	r24, 0x01	; 1
    1266:	80 93 0b 01 	sts	0x010B, r24	; 0x80010b <CMUTimeToScan>
	}
}
    126a:	ff 91       	pop	r31
    126c:	ef 91       	pop	r30
    126e:	bf 91       	pop	r27
    1270:	af 91       	pop	r26
    1272:	9f 91       	pop	r25
    1274:	8f 91       	pop	r24
    1276:	7f 91       	pop	r23
    1278:	6f 91       	pop	r22
    127a:	5f 91       	pop	r21
    127c:	4f 91       	pop	r20
    127e:	3f 91       	pop	r19
    1280:	2f 91       	pop	r18
    1282:	0f 90       	pop	r0
    1284:	0f be       	out	0x3f, r0	; 63
    1286:	0f 90       	pop	r0
    1288:	1f 90       	pop	r1
    128a:	18 95       	reti

0000128c <MCP2515_reg_write>:
	MCP2515_bit_modify(MCP2515_CANCTRL, 0x00, 0xE0);		//put the device into it's functional mode currently: normal 0xE0, listen is 0x60
	
}

void MCP2515_reg_write(uint8_t reg_address, uint8_t reg_value)
{
    128c:	cf 93       	push	r28
    128e:	df 93       	push	r29
    1290:	d8 2f       	mov	r29, r24
    1292:	c6 2f       	mov	r28, r22
	MCP2515_PORT_CS &= ~(1<<MCP2515_PIN_CS);			//unset CS so MCP2515 knows we are talking
    1294:	2e 98       	cbi	0x05, 6	; 5
	SPI_send_byte(MCP2515_WRITE);
    1296:	82 e0       	ldi	r24, 0x02	; 2
    1298:	0e 94 39 0c 	call	0x1872	; 0x1872 <SPI_send_byte>
	SPI_send_byte(reg_address);
    129c:	8d 2f       	mov	r24, r29
    129e:	0e 94 39 0c 	call	0x1872	; 0x1872 <SPI_send_byte>
	SPI_send_byte(reg_value);
    12a2:	8c 2f       	mov	r24, r28
    12a4:	0e 94 39 0c 	call	0x1872	; 0x1872 <SPI_send_byte>
	MCP2515_PORT_CS |= (1<<MCP2515_PIN_CS);			//set the CS.
    12a8:	2e 9a       	sbi	0x05, 6	; 5
	//if(MCP2515_reg_read(reg_address) == reg_value)flash_LED(1,RED_LED);
}
    12aa:	df 91       	pop	r29
    12ac:	cf 91       	pop	r28
    12ae:	08 95       	ret

000012b0 <MCP2515_instruction>:

void MCP2515_instruction(uint8_t instruction)
{
	MCP2515_PORT_CS &= ~(1<<MCP2515_PIN_CS);			//unset CS so MCP2515 knows we are talking
    12b0:	2e 98       	cbi	0x05, 6	; 5
	SPI_send_byte(instruction);
    12b2:	0e 94 39 0c 	call	0x1872	; 0x1872 <SPI_send_byte>
	MCP2515_PORT_CS |= (1<<MCP2515_PIN_CS);			//set the CS.
    12b6:	2e 9a       	sbi	0x05, 6	; 5
    12b8:	08 95       	ret

000012ba <MCP2515_bit_modify>:
}


void MCP2515_bit_modify(uint8_t reg_address, uint8_t reg_value, uint8_t reg_mask)
{
    12ba:	1f 93       	push	r17
    12bc:	cf 93       	push	r28
    12be:	df 93       	push	r29
    12c0:	18 2f       	mov	r17, r24
    12c2:	c6 2f       	mov	r28, r22
    12c4:	d4 2f       	mov	r29, r20
	MCP2515_PORT_CS &= ~(1<<MCP2515_PIN_CS);			//unset CS so MCP2515 knows we are talking
    12c6:	2e 98       	cbi	0x05, 6	; 5
	SPI_send_byte(MCP2515_BITMODIFY);		//send instruction of bitmodify
    12c8:	85 e0       	ldi	r24, 0x05	; 5
    12ca:	0e 94 39 0c 	call	0x1872	; 0x1872 <SPI_send_byte>
	SPI_send_byte(reg_address);				//send address
    12ce:	81 2f       	mov	r24, r17
    12d0:	0e 94 39 0c 	call	0x1872	; 0x1872 <SPI_send_byte>
	SPI_send_byte(reg_mask);				//send the mask
    12d4:	8d 2f       	mov	r24, r29
    12d6:	0e 94 39 0c 	call	0x1872	; 0x1872 <SPI_send_byte>
	SPI_send_byte(reg_value);				//send the data
    12da:	8c 2f       	mov	r24, r28
    12dc:	0e 94 39 0c 	call	0x1872	; 0x1872 <SPI_send_byte>
	MCP2515_PORT_CS |= (1<<MCP2515_PIN_CS);			//set the CS.
    12e0:	2e 9a       	sbi	0x05, 6	; 5
}
    12e2:	df 91       	pop	r29
    12e4:	cf 91       	pop	r28
    12e6:	1f 91       	pop	r17
    12e8:	08 95       	ret

000012ea <MCP2515_init>:
#include "MCP2515.h"

void MCP2515_init()
{
	//DDRC |= (1<<MCP2515_PIN_RESET);		//set the reset pin to output
	MCP2515_PORT_RESET &= ~(1<<MCP2515_PIN_RESET);
    12ea:	45 98       	cbi	0x08, 5	; 8
	#else
		//round up by default
		__ticks_dc = (uint32_t)(ceil(fabs(__tmp)));
	#endif

	__builtin_avr_delay_cycles(__ticks_dc);
    12ec:	87 ec       	ldi	r24, 0xC7	; 199
    12ee:	90 e0       	ldi	r25, 0x00	; 0
    12f0:	01 97       	sbiw	r24, 0x01	; 1
    12f2:	f1 f7       	brne	.-4      	; 0x12f0 <MCP2515_init+0x6>
    12f4:	00 c0       	rjmp	.+0      	; 0x12f6 <MCP2515_init+0xc>
    12f6:	00 00       	nop
	_delay_us(50);
	MCP2515_PORT_RESET |= (1<<MCP2515_PIN_RESET);
    12f8:	45 9a       	sbi	0x08, 5	; 8

	//SPI_send_byte(MCP2515_RESET); //instead of hard reset, perform software rest.
	MCP2515_bit_modify(MCP2515_CANCTRL,128,0xE0);		//put the device into configuration mode.
    12fa:	40 ee       	ldi	r20, 0xE0	; 224
    12fc:	60 e8       	ldi	r22, 0x80	; 128
    12fe:	8f e0       	ldi	r24, 0x0F	; 15
    1300:	0e 94 5d 09 	call	0x12ba	; 0x12ba <MCP2515_bit_modify>

	MCP2515_reg_write(MCP2515_CNF1, 0x04);	//SJW = 0(1),BRP = 4(5)--> number in brackets is actual value, as mcp2515 adds 1.
    1304:	64 e0       	ldi	r22, 0x04	; 4
    1306:	8a e2       	ldi	r24, 0x2A	; 42
    1308:	0e 94 46 09 	call	0x128c	; 0x128c <MCP2515_reg_write>
	MCP2515_reg_write(MCP2515_CNF2, 0xCA);	//BTL = 1, SAM = 1, PHSEG1 = 001(2), PRSEG = 010 (3)
    130c:	6a ec       	ldi	r22, 0xCA	; 202
    130e:	89 e2       	ldi	r24, 0x29	; 41
    1310:	0e 94 46 09 	call	0x128c	; 0x128c <MCP2515_reg_write>
	MCP2515_reg_write(MCP2515_CNF3, 0x01);	//SOF = 0, WAKFIL = 0, PHSEG2 = 001(2).
    1314:	61 e0       	ldi	r22, 0x01	; 1
    1316:	88 e2       	ldi	r24, 0x28	; 40
    1318:	0e 94 46 09 	call	0x128c	; 0x128c <MCP2515_reg_write>
	MCP2515_reg_write(MCP2515_CANINTE, 0b00000011);	//enable interrupt in rx0, rx1, tx0, tx1, tx2.
    131c:	63 e0       	ldi	r22, 0x03	; 3
    131e:	8b e2       	ldi	r24, 0x2B	; 43
    1320:	0e 94 46 09 	call	0x128c	; 0x128c <MCP2515_reg_write>
	MCP2515_reg_write(MCP2515_RTSCTRL, 0x01); //probably want to move this to a tx init function. eventually. if it aint broke don't fix it...
    1324:	61 e0       	ldi	r22, 0x01	; 1
    1326:	8d e0       	ldi	r24, 0x0D	; 13
    1328:	0e 94 46 09 	call	0x128c	; 0x128c <MCP2515_reg_write>
	//MCP2515_init_Rx();
	MCP2515_bit_modify(MCP2515_CANCTRL, 0x00, 0xE0);		//put the device into it's functional mode currently: normal 0xE0, listen is 0x60
    132c:	40 ee       	ldi	r20, 0xE0	; 224
    132e:	60 e0       	ldi	r22, 0x00	; 0
    1330:	8f e0       	ldi	r24, 0x0F	; 15
    1332:	0e 94 5d 09 	call	0x12ba	; 0x12ba <MCP2515_bit_modify>
    1336:	08 95       	ret

00001338 <MCP2515_receive_status>:
	SPI_send_byte(reg_value);				//send the data
	MCP2515_PORT_CS |= (1<<MCP2515_PIN_CS);			//set the CS.
}

uint8_t MCP2515_receive_status()
{
    1338:	cf 93       	push	r28
	uint8_t mcp2515_status[2];
	MCP2515_PORT_CS &= ~(1<<MCP2515_PIN_CS);			//unset CS so MCP2515 knows we are talking
    133a:	2e 98       	cbi	0x05, 6	; 5
	SPI_send_byte(0xA0);					//send retrieve status instruction
    133c:	80 ea       	ldi	r24, 0xA0	; 160
    133e:	0e 94 39 0c 	call	0x1872	; 0x1872 <SPI_send_byte>
	mcp2515_status[0] = SPI_send_byte(0x00);//send don't care bits while mcp2515 is retrieving data.
    1342:	80 e0       	ldi	r24, 0x00	; 0
    1344:	0e 94 39 0c 	call	0x1872	; 0x1872 <SPI_send_byte>
    1348:	c8 2f       	mov	r28, r24
	mcp2515_status[1] = SPI_send_byte(0x00);//duplicate data is retrieved again. nothing to do with this second lot yet.
    134a:	80 e0       	ldi	r24, 0x00	; 0
    134c:	0e 94 39 0c 	call	0x1872	; 0x1872 <SPI_send_byte>
	MCP2515_PORT_CS |= (1<<MCP2515_PIN_CS);			//set the CS.
    1350:	2e 9a       	sbi	0x05, 6	; 5
	return mcp2515_status[0];					//send it back for analysis.
}
    1352:	8c 2f       	mov	r24, r28
    1354:	cf 91       	pop	r28
    1356:	08 95       	ret

00001358 <MCP2515_RxBufferRead>:
 * ---------------------------> this example will fill the data[8] array with bytes from RXB0D0-->RXB0D7
 *
 * This function also automatically clears the interrupt flag CANINTF.RX0IF(in this case)
 */
void MCP2515_RxBufferRead(uint8_t * data, uint8_t startingAddress)
{
    1358:	ef 92       	push	r14
    135a:	ff 92       	push	r15
    135c:	0f 93       	push	r16
    135e:	1f 93       	push	r17
    1360:	cf 93       	push	r28
    1362:	8c 01       	movw	r16, r24

	//the following line combines the instruction(0b10010000), with: 0b100 for rxb0 or 0b000 for rxb1, and: 0b10 for data starting at data0, or 0b00 for SIDH
	uint8_t instruction = 0b10010000|((startingAddress > 0x70)<<2)|((startingAddress == MCP2515_RXB0D0 || startingAddress == MCP2515_RXB1D0)<<1);
    1364:	61 37       	cpi	r22, 0x71	; 113
    1366:	10 f4       	brcc	.+4      	; 0x136c <MCP2515_RxBufferRead+0x14>
    1368:	c0 e9       	ldi	r28, 0x90	; 144
    136a:	01 c0       	rjmp	.+2      	; 0x136e <MCP2515_RxBufferRead+0x16>
    136c:	c4 e9       	ldi	r28, 0x94	; 148
    136e:	6f 7e       	andi	r22, 0xEF	; 239
    1370:	21 e0       	ldi	r18, 0x01	; 1
    1372:	30 e0       	ldi	r19, 0x00	; 0
    1374:	66 36       	cpi	r22, 0x66	; 102
    1376:	11 f0       	breq	.+4      	; 0x137c <MCP2515_RxBufferRead+0x24>
    1378:	20 e0       	ldi	r18, 0x00	; 0
    137a:	30 e0       	ldi	r19, 0x00	; 0
    137c:	22 0f       	add	r18, r18
    137e:	33 1f       	adc	r19, r19
    1380:	c2 2b       	or	r28, r18
	MCP2515_PORT_CS &= ~(1<<MCP2515_PIN_CS);			//lower CS.
    1382:	2e 98       	cbi	0x05, 6	; 5
	SPI_send_byte(instruction);							//send instruction for stream of data
    1384:	8c 2f       	mov	r24, r28
    1386:	0e 94 39 0c 	call	0x1872	; 0x1872 <SPI_send_byte>
    138a:	c1 fd       	sbrc	r28, 1
    138c:	03 c0       	rjmp	.+6      	; 0x1394 <MCP2515_RxBufferRead+0x3c>
    138e:	9c e0       	ldi	r25, 0x0C	; 12
    1390:	80 e0       	ldi	r24, 0x00	; 0
    1392:	02 c0       	rjmp	.+4      	; 0x1398 <MCP2515_RxBufferRead+0x40>
    1394:	98 e0       	ldi	r25, 0x08	; 8
    1396:	80 e0       	ldi	r24, 0x00	; 0
    1398:	e9 2e       	mov	r14, r25
    139a:	f8 2e       	mov	r15, r24
	//loop counts to 8 or 12 depending on whether bit 1 of instruction is set.
	for(uint8_t counter = 0; counter < (8 + 4*((instruction & 2)==0)); counter++)
    139c:	c0 e0       	ldi	r28, 0x00	; 0
    139e:	07 c0       	rjmp	.+14     	; 0x13ae <MCP2515_RxBufferRead+0x56>
	{
		*data = SPI_send_byte(0x00);
    13a0:	80 e0       	ldi	r24, 0x00	; 0
    13a2:	0e 94 39 0c 	call	0x1872	; 0x1872 <SPI_send_byte>
    13a6:	f8 01       	movw	r30, r16
    13a8:	81 93       	st	Z+, r24
    13aa:	8f 01       	movw	r16, r30
	//the following line combines the instruction(0b10010000), with: 0b100 for rxb0 or 0b000 for rxb1, and: 0b10 for data starting at data0, or 0b00 for SIDH
	uint8_t instruction = 0b10010000|((startingAddress > 0x70)<<2)|((startingAddress == MCP2515_RXB0D0 || startingAddress == MCP2515_RXB1D0)<<1);
	MCP2515_PORT_CS &= ~(1<<MCP2515_PIN_CS);			//lower CS.
	SPI_send_byte(instruction);							//send instruction for stream of data
	//loop counts to 8 or 12 depending on whether bit 1 of instruction is set.
	for(uint8_t counter = 0; counter < (8 + 4*((instruction & 2)==0)); counter++)
    13ac:	cf 5f       	subi	r28, 0xFF	; 255
    13ae:	8c 2f       	mov	r24, r28
    13b0:	90 e0       	ldi	r25, 0x00	; 0
    13b2:	8e 15       	cp	r24, r14
    13b4:	9f 05       	cpc	r25, r15
    13b6:	a4 f3       	brlt	.-24     	; 0x13a0 <MCP2515_RxBufferRead+0x48>
	{
		*data = SPI_send_byte(0x00);
		data++;
	}
	MCP2515_PORT_CS |= (1<<MCP2515_PIN_CS);				//raise CS.
    13b8:	2e 9a       	sbi	0x05, 6	; 5
}
    13ba:	cf 91       	pop	r28
    13bc:	1f 91       	pop	r17
    13be:	0f 91       	pop	r16
    13c0:	ff 90       	pop	r15
    13c2:	ef 90       	pop	r14
    13c4:	08 95       	ret

000013c6 <MCP2515_reg_read>:

uint8_t MCP2515_reg_read(uint8_t reg_address)
{
    13c6:	cf 93       	push	r28
    13c8:	c8 2f       	mov	r28, r24
	uint8_t read_result;
	MCP2515_PORT_CS &= ~(1<<MCP2515_PIN_CS);			//unset CS so MCP2515 knows we are talking
    13ca:	2e 98       	cbi	0x05, 6	; 5
	SPI_send_byte(0x03);
    13cc:	83 e0       	ldi	r24, 0x03	; 3
    13ce:	0e 94 39 0c 	call	0x1872	; 0x1872 <SPI_send_byte>
	SPI_send_byte(reg_address);
    13d2:	8c 2f       	mov	r24, r28
    13d4:	0e 94 39 0c 	call	0x1872	; 0x1872 <SPI_send_byte>
	read_result = SPI_send_byte(0x00);
    13d8:	80 e0       	ldi	r24, 0x00	; 0
    13da:	0e 94 39 0c 	call	0x1872	; 0x1872 <SPI_send_byte>
	MCP2515_PORT_CS |= (1<<MCP2515_PIN_CS);			//set the CS.
    13de:	2e 9a       	sbi	0x05, 6	; 5
	return read_result;
}
    13e0:	cf 91       	pop	r28
    13e2:	08 95       	ret

000013e4 <MCP2515_findFreeTxBuffer>:
uint8_t MCP2515_findFreeTxBuffer()
{
	//uint8_t MCP2515_TxBuffer = 0;
	//flash_LED(1,RED_LED);
	//MCP2515_TxBuffer = (MCP2515_reg_read(MCP2515_CANINTF)& 0b00011100);			//get interrupt status, only the txbuffer empty ones though
	if		((MCP2515_reg_read(MCP2515_TX0) & 0b00001000)== 0)						//if tx0 is free,
    13e4:	80 e3       	ldi	r24, 0x30	; 48
    13e6:	0e 94 e3 09 	call	0x13c6	; 0x13c6 <MCP2515_reg_read>
    13ea:	83 ff       	sbrs	r24, 3
    13ec:	0c c0       	rjmp	.+24     	; 0x1406 <MCP2515_findFreeTxBuffer+0x22>
	{
		return MCP2515_TX0;
	}
	else if	((MCP2515_reg_read(MCP2515_TX1) & 0b00001000)== 0)						//if tx1 is free,
    13ee:	80 e4       	ldi	r24, 0x40	; 64
    13f0:	0e 94 e3 09 	call	0x13c6	; 0x13c6 <MCP2515_reg_read>
    13f4:	83 ff       	sbrs	r24, 3
    13f6:	09 c0       	rjmp	.+18     	; 0x140a <MCP2515_findFreeTxBuffer+0x26>
	{
		return MCP2515_TX1;
	}
	else if	((MCP2515_reg_read(MCP2515_TX2) & 0b00001000)== 0)						//if tx2 is free,
    13f8:	80 e5       	ldi	r24, 0x50	; 80
    13fa:	0e 94 e3 09 	call	0x13c6	; 0x13c6 <MCP2515_reg_read>
    13fe:	83 ff       	sbrs	r24, 3
    1400:	06 c0       	rjmp	.+12     	; 0x140e <MCP2515_findFreeTxBuffer+0x2a>
	{
		return MCP2515_TX2;
	}
	else {return 0x00;	}														//otherwise none are free.
    1402:	80 e0       	ldi	r24, 0x00	; 0
    1404:	08 95       	ret
	//uint8_t MCP2515_TxBuffer = 0;
	//flash_LED(1,RED_LED);
	//MCP2515_TxBuffer = (MCP2515_reg_read(MCP2515_CANINTF)& 0b00011100);			//get interrupt status, only the txbuffer empty ones though
	if		((MCP2515_reg_read(MCP2515_TX0) & 0b00001000)== 0)						//if tx0 is free,
	{
		return MCP2515_TX0;
    1406:	80 e3       	ldi	r24, 0x30	; 48
    1408:	08 95       	ret
	}
	else if	((MCP2515_reg_read(MCP2515_TX1) & 0b00001000)== 0)						//if tx1 is free,
	{
		return MCP2515_TX1;
    140a:	80 e4       	ldi	r24, 0x40	; 64
    140c:	08 95       	ret
	}
	else if	((MCP2515_reg_read(MCP2515_TX2) & 0b00001000)== 0)						//if tx2 is free,
	{
		return MCP2515_TX2;
    140e:	80 e5       	ldi	r24, 0x50	; 80
	}
	else {return 0x00;	}														//otherwise none are free.
}
    1410:	08 95       	ret

00001412 <MCP2515_FilterInit>:

void MCP2515_FilterInit(uint8_t filterNum, uint32_t filterID)
{
    1412:	cf 92       	push	r12
    1414:	df 92       	push	r13
    1416:	ef 92       	push	r14
    1418:	ff 92       	push	r15
    141a:	6a 01       	movw	r12, r20
    141c:	7b 01       	movw	r14, r22
	switch(filterNum)
    141e:	82 30       	cpi	r24, 0x02	; 2
    1420:	09 f4       	brne	.+2      	; 0x1424 <MCP2515_FilterInit+0x12>
    1422:	69 c0       	rjmp	.+210    	; 0x14f6 <MCP2515_FilterInit+0xe4>
    1424:	28 f4       	brcc	.+10     	; 0x1430 <MCP2515_FilterInit+0x1e>
    1426:	88 23       	and	r24, r24
    1428:	61 f0       	breq	.+24     	; 0x1442 <MCP2515_FilterInit+0x30>
    142a:	81 30       	cpi	r24, 0x01	; 1
    142c:	b9 f1       	breq	.+110    	; 0x149c <MCP2515_FilterInit+0x8a>
    142e:	17 c1       	rjmp	.+558    	; 0x165e <MCP2515_FilterInit+0x24c>
    1430:	84 30       	cpi	r24, 0x04	; 4
    1432:	09 f4       	brne	.+2      	; 0x1436 <MCP2515_FilterInit+0x24>
    1434:	ba c0       	rjmp	.+372    	; 0x15aa <MCP2515_FilterInit+0x198>
    1436:	08 f4       	brcc	.+2      	; 0x143a <MCP2515_FilterInit+0x28>
    1438:	8b c0       	rjmp	.+278    	; 0x1550 <MCP2515_FilterInit+0x13e>
    143a:	85 30       	cpi	r24, 0x05	; 5
    143c:	09 f4       	brne	.+2      	; 0x1440 <MCP2515_FilterInit+0x2e>
    143e:	e2 c0       	rjmp	.+452    	; 0x1604 <MCP2515_FilterInit+0x1f2>
    1440:	0e c1       	rjmp	.+540    	; 0x165e <MCP2515_FilterInit+0x24c>
	{
		case 0:
			MCP2515_reg_write(MCP2515_RXF0SIDH, (filterID>>21) & 0xFF);
    1442:	cb 01       	movw	r24, r22
    1444:	ba 01       	movw	r22, r20
    1446:	05 2e       	mov	r0, r21
    1448:	55 e1       	ldi	r21, 0x15	; 21
    144a:	96 95       	lsr	r25
    144c:	87 95       	ror	r24
    144e:	77 95       	ror	r23
    1450:	67 95       	ror	r22
    1452:	5a 95       	dec	r21
    1454:	d1 f7       	brne	.-12     	; 0x144a <MCP2515_FilterInit+0x38>
    1456:	50 2d       	mov	r21, r0
    1458:	80 e0       	ldi	r24, 0x00	; 0
    145a:	0e 94 46 09 	call	0x128c	; 0x128c <MCP2515_reg_write>
			MCP2515_reg_write(MCP2515_RXF0SIDL, (((filterID>>13) & 224)| ((filterID>>16) & 3) | ((1<<3) & 0xFF)));
    145e:	d7 01       	movw	r26, r14
    1460:	c6 01       	movw	r24, r12
    1462:	07 2e       	mov	r0, r23
    1464:	7d e0       	ldi	r23, 0x0D	; 13
    1466:	b6 95       	lsr	r27
    1468:	a7 95       	ror	r26
    146a:	97 95       	ror	r25
    146c:	87 95       	ror	r24
    146e:	7a 95       	dec	r23
    1470:	d1 f7       	brne	.-12     	; 0x1466 <MCP2515_FilterInit+0x54>
    1472:	70 2d       	mov	r23, r0
    1474:	68 2f       	mov	r22, r24
    1476:	60 7e       	andi	r22, 0xE0	; 224
    1478:	8e 2d       	mov	r24, r14
    147a:	83 70       	andi	r24, 0x03	; 3
    147c:	68 2b       	or	r22, r24
    147e:	68 60       	ori	r22, 0x08	; 8
    1480:	81 e0       	ldi	r24, 0x01	; 1
    1482:	0e 94 46 09 	call	0x128c	; 0x128c <MCP2515_reg_write>
			MCP2515_reg_write(MCP2515_RXF0EID8, (filterID>>8) & 0xFF );
    1486:	99 27       	eor	r25, r25
    1488:	8f 2d       	mov	r24, r15
    148a:	7e 2d       	mov	r23, r14
    148c:	6d 2d       	mov	r22, r13
    148e:	82 e0       	ldi	r24, 0x02	; 2
    1490:	0e 94 46 09 	call	0x128c	; 0x128c <MCP2515_reg_write>
			MCP2515_reg_write(MCP2515_RXF0EID0, filterID & 0xFF );
    1494:	6c 2d       	mov	r22, r12
    1496:	83 e0       	ldi	r24, 0x03	; 3
    1498:	0e 94 46 09 	call	0x128c	; 0x128c <MCP2515_reg_write>
		case 1:
			MCP2515_reg_write(MCP2515_RXF1SIDH, (filterID>>21) & 0xFF);
    149c:	c7 01       	movw	r24, r14
    149e:	b6 01       	movw	r22, r12
    14a0:	05 2e       	mov	r0, r21
    14a2:	55 e1       	ldi	r21, 0x15	; 21
    14a4:	96 95       	lsr	r25
    14a6:	87 95       	ror	r24
    14a8:	77 95       	ror	r23
    14aa:	67 95       	ror	r22
    14ac:	5a 95       	dec	r21
    14ae:	d1 f7       	brne	.-12     	; 0x14a4 <MCP2515_FilterInit+0x92>
    14b0:	50 2d       	mov	r21, r0
    14b2:	84 e0       	ldi	r24, 0x04	; 4
    14b4:	0e 94 46 09 	call	0x128c	; 0x128c <MCP2515_reg_write>
			MCP2515_reg_write(MCP2515_RXF1SIDL, (((filterID>>13) & 224)| ((filterID>>16) & 3) | ((1<<3) & 0xFF)));
    14b8:	d7 01       	movw	r26, r14
    14ba:	c6 01       	movw	r24, r12
    14bc:	07 2e       	mov	r0, r23
    14be:	7d e0       	ldi	r23, 0x0D	; 13
    14c0:	b6 95       	lsr	r27
    14c2:	a7 95       	ror	r26
    14c4:	97 95       	ror	r25
    14c6:	87 95       	ror	r24
    14c8:	7a 95       	dec	r23
    14ca:	d1 f7       	brne	.-12     	; 0x14c0 <MCP2515_FilterInit+0xae>
    14cc:	70 2d       	mov	r23, r0
    14ce:	68 2f       	mov	r22, r24
    14d0:	60 7e       	andi	r22, 0xE0	; 224
    14d2:	8e 2d       	mov	r24, r14
    14d4:	83 70       	andi	r24, 0x03	; 3
    14d6:	68 2b       	or	r22, r24
    14d8:	68 60       	ori	r22, 0x08	; 8
    14da:	85 e0       	ldi	r24, 0x05	; 5
    14dc:	0e 94 46 09 	call	0x128c	; 0x128c <MCP2515_reg_write>
			MCP2515_reg_write(MCP2515_RXF1EID8, (filterID>>8) & 0xFF );
    14e0:	99 27       	eor	r25, r25
    14e2:	8f 2d       	mov	r24, r15
    14e4:	7e 2d       	mov	r23, r14
    14e6:	6d 2d       	mov	r22, r13
    14e8:	86 e0       	ldi	r24, 0x06	; 6
    14ea:	0e 94 46 09 	call	0x128c	; 0x128c <MCP2515_reg_write>
			MCP2515_reg_write(MCP2515_RXF1EID0, filterID & 0xFF );
    14ee:	6c 2d       	mov	r22, r12
    14f0:	87 e0       	ldi	r24, 0x07	; 7
    14f2:	0e 94 46 09 	call	0x128c	; 0x128c <MCP2515_reg_write>
		case 2:
			MCP2515_reg_write(MCP2515_RXF2SIDH, (filterID>>21) & 0xFF);
    14f6:	c7 01       	movw	r24, r14
    14f8:	b6 01       	movw	r22, r12
    14fa:	05 2e       	mov	r0, r21
    14fc:	55 e1       	ldi	r21, 0x15	; 21
    14fe:	96 95       	lsr	r25
    1500:	87 95       	ror	r24
    1502:	77 95       	ror	r23
    1504:	67 95       	ror	r22
    1506:	5a 95       	dec	r21
    1508:	d1 f7       	brne	.-12     	; 0x14fe <MCP2515_FilterInit+0xec>
    150a:	50 2d       	mov	r21, r0
    150c:	88 e0       	ldi	r24, 0x08	; 8
    150e:	0e 94 46 09 	call	0x128c	; 0x128c <MCP2515_reg_write>
			MCP2515_reg_write(MCP2515_RXF2SIDL, (((filterID>>13) & 224)| ((filterID>>16) & 3) | ((1<<3) & 0xFF)));
    1512:	d7 01       	movw	r26, r14
    1514:	c6 01       	movw	r24, r12
    1516:	07 2e       	mov	r0, r23
    1518:	7d e0       	ldi	r23, 0x0D	; 13
    151a:	b6 95       	lsr	r27
    151c:	a7 95       	ror	r26
    151e:	97 95       	ror	r25
    1520:	87 95       	ror	r24
    1522:	7a 95       	dec	r23
    1524:	d1 f7       	brne	.-12     	; 0x151a <MCP2515_FilterInit+0x108>
    1526:	70 2d       	mov	r23, r0
    1528:	68 2f       	mov	r22, r24
    152a:	60 7e       	andi	r22, 0xE0	; 224
    152c:	8e 2d       	mov	r24, r14
    152e:	83 70       	andi	r24, 0x03	; 3
    1530:	68 2b       	or	r22, r24
    1532:	68 60       	ori	r22, 0x08	; 8
    1534:	89 e0       	ldi	r24, 0x09	; 9
    1536:	0e 94 46 09 	call	0x128c	; 0x128c <MCP2515_reg_write>
			MCP2515_reg_write(MCP2515_RXF2EID8, (filterID>>8) & 0xFF );
    153a:	99 27       	eor	r25, r25
    153c:	8f 2d       	mov	r24, r15
    153e:	7e 2d       	mov	r23, r14
    1540:	6d 2d       	mov	r22, r13
    1542:	8a e0       	ldi	r24, 0x0A	; 10
    1544:	0e 94 46 09 	call	0x128c	; 0x128c <MCP2515_reg_write>
			MCP2515_reg_write(MCP2515_RXF2EID0, filterID & 0xFF );
    1548:	6c 2d       	mov	r22, r12
    154a:	8b e0       	ldi	r24, 0x0B	; 11
    154c:	0e 94 46 09 	call	0x128c	; 0x128c <MCP2515_reg_write>
		case 3:
			MCP2515_reg_write(MCP2515_RXF3SIDH, (filterID>>21) & 0xFF);
    1550:	c7 01       	movw	r24, r14
    1552:	b6 01       	movw	r22, r12
    1554:	05 2e       	mov	r0, r21
    1556:	55 e1       	ldi	r21, 0x15	; 21
    1558:	96 95       	lsr	r25
    155a:	87 95       	ror	r24
    155c:	77 95       	ror	r23
    155e:	67 95       	ror	r22
    1560:	5a 95       	dec	r21
    1562:	d1 f7       	brne	.-12     	; 0x1558 <MCP2515_FilterInit+0x146>
    1564:	50 2d       	mov	r21, r0
    1566:	80 e1       	ldi	r24, 0x10	; 16
    1568:	0e 94 46 09 	call	0x128c	; 0x128c <MCP2515_reg_write>
			MCP2515_reg_write(MCP2515_RXF3SIDL, (((filterID>>13) & 224)| ((filterID>>16) & 3) | ((1<<3) & 0xFF)));
    156c:	d7 01       	movw	r26, r14
    156e:	c6 01       	movw	r24, r12
    1570:	07 2e       	mov	r0, r23
    1572:	7d e0       	ldi	r23, 0x0D	; 13
    1574:	b6 95       	lsr	r27
    1576:	a7 95       	ror	r26
    1578:	97 95       	ror	r25
    157a:	87 95       	ror	r24
    157c:	7a 95       	dec	r23
    157e:	d1 f7       	brne	.-12     	; 0x1574 <MCP2515_FilterInit+0x162>
    1580:	70 2d       	mov	r23, r0
    1582:	68 2f       	mov	r22, r24
    1584:	60 7e       	andi	r22, 0xE0	; 224
    1586:	8e 2d       	mov	r24, r14
    1588:	83 70       	andi	r24, 0x03	; 3
    158a:	68 2b       	or	r22, r24
    158c:	68 60       	ori	r22, 0x08	; 8
    158e:	81 e1       	ldi	r24, 0x11	; 17
    1590:	0e 94 46 09 	call	0x128c	; 0x128c <MCP2515_reg_write>
			MCP2515_reg_write(MCP2515_RXF3EID8, (filterID>>8) & 0xFF );
    1594:	99 27       	eor	r25, r25
    1596:	8f 2d       	mov	r24, r15
    1598:	7e 2d       	mov	r23, r14
    159a:	6d 2d       	mov	r22, r13
    159c:	82 e1       	ldi	r24, 0x12	; 18
    159e:	0e 94 46 09 	call	0x128c	; 0x128c <MCP2515_reg_write>
			MCP2515_reg_write(MCP2515_RXF3EID0, filterID & 0xFF );
    15a2:	6c 2d       	mov	r22, r12
    15a4:	83 e1       	ldi	r24, 0x13	; 19
    15a6:	0e 94 46 09 	call	0x128c	; 0x128c <MCP2515_reg_write>
		case 4:
			MCP2515_reg_write(MCP2515_RXF4SIDH, (filterID>>21) & 0xFF);
    15aa:	c7 01       	movw	r24, r14
    15ac:	b6 01       	movw	r22, r12
    15ae:	05 2e       	mov	r0, r21
    15b0:	55 e1       	ldi	r21, 0x15	; 21
    15b2:	96 95       	lsr	r25
    15b4:	87 95       	ror	r24
    15b6:	77 95       	ror	r23
    15b8:	67 95       	ror	r22
    15ba:	5a 95       	dec	r21
    15bc:	d1 f7       	brne	.-12     	; 0x15b2 <MCP2515_FilterInit+0x1a0>
    15be:	50 2d       	mov	r21, r0
    15c0:	84 e1       	ldi	r24, 0x14	; 20
    15c2:	0e 94 46 09 	call	0x128c	; 0x128c <MCP2515_reg_write>
			MCP2515_reg_write(MCP2515_RXF4SIDL, (((filterID>>13) & 224)| ((filterID>>16) & 3) | ((1<<3) & 0xFF)));
    15c6:	d7 01       	movw	r26, r14
    15c8:	c6 01       	movw	r24, r12
    15ca:	07 2e       	mov	r0, r23
    15cc:	7d e0       	ldi	r23, 0x0D	; 13
    15ce:	b6 95       	lsr	r27
    15d0:	a7 95       	ror	r26
    15d2:	97 95       	ror	r25
    15d4:	87 95       	ror	r24
    15d6:	7a 95       	dec	r23
    15d8:	d1 f7       	brne	.-12     	; 0x15ce <MCP2515_FilterInit+0x1bc>
    15da:	70 2d       	mov	r23, r0
    15dc:	68 2f       	mov	r22, r24
    15de:	60 7e       	andi	r22, 0xE0	; 224
    15e0:	8e 2d       	mov	r24, r14
    15e2:	83 70       	andi	r24, 0x03	; 3
    15e4:	68 2b       	or	r22, r24
    15e6:	68 60       	ori	r22, 0x08	; 8
    15e8:	85 e1       	ldi	r24, 0x15	; 21
    15ea:	0e 94 46 09 	call	0x128c	; 0x128c <MCP2515_reg_write>
			MCP2515_reg_write(MCP2515_RXF4EID8, (filterID>>8) & 0xFF );
    15ee:	99 27       	eor	r25, r25
    15f0:	8f 2d       	mov	r24, r15
    15f2:	7e 2d       	mov	r23, r14
    15f4:	6d 2d       	mov	r22, r13
    15f6:	86 e1       	ldi	r24, 0x16	; 22
    15f8:	0e 94 46 09 	call	0x128c	; 0x128c <MCP2515_reg_write>
			MCP2515_reg_write(MCP2515_RXF4EID0, filterID & 0xFF );
    15fc:	6c 2d       	mov	r22, r12
    15fe:	87 e1       	ldi	r24, 0x17	; 23
    1600:	0e 94 46 09 	call	0x128c	; 0x128c <MCP2515_reg_write>
		case 5:
			MCP2515_reg_write(MCP2515_RXF5SIDH, (filterID>>21) & 0xFF);
    1604:	c7 01       	movw	r24, r14
    1606:	b6 01       	movw	r22, r12
    1608:	05 2e       	mov	r0, r21
    160a:	55 e1       	ldi	r21, 0x15	; 21
    160c:	96 95       	lsr	r25
    160e:	87 95       	ror	r24
    1610:	77 95       	ror	r23
    1612:	67 95       	ror	r22
    1614:	5a 95       	dec	r21
    1616:	d1 f7       	brne	.-12     	; 0x160c <MCP2515_FilterInit+0x1fa>
    1618:	50 2d       	mov	r21, r0
    161a:	88 e1       	ldi	r24, 0x18	; 24
    161c:	0e 94 46 09 	call	0x128c	; 0x128c <MCP2515_reg_write>
			MCP2515_reg_write(MCP2515_RXF5SIDL, (((filterID>>13) & 224)| ((filterID>>16) & 3) | ((1<<3) & 0xFF)));
    1620:	d7 01       	movw	r26, r14
    1622:	c6 01       	movw	r24, r12
    1624:	07 2e       	mov	r0, r23
    1626:	7d e0       	ldi	r23, 0x0D	; 13
    1628:	b6 95       	lsr	r27
    162a:	a7 95       	ror	r26
    162c:	97 95       	ror	r25
    162e:	87 95       	ror	r24
    1630:	7a 95       	dec	r23
    1632:	d1 f7       	brne	.-12     	; 0x1628 <MCP2515_FilterInit+0x216>
    1634:	70 2d       	mov	r23, r0
    1636:	68 2f       	mov	r22, r24
    1638:	60 7e       	andi	r22, 0xE0	; 224
    163a:	8e 2d       	mov	r24, r14
    163c:	83 70       	andi	r24, 0x03	; 3
    163e:	68 2b       	or	r22, r24
    1640:	68 60       	ori	r22, 0x08	; 8
    1642:	89 e1       	ldi	r24, 0x19	; 25
    1644:	0e 94 46 09 	call	0x128c	; 0x128c <MCP2515_reg_write>
			MCP2515_reg_write(MCP2515_RXF5EID8, (filterID>>8) & 0xFF );
    1648:	99 27       	eor	r25, r25
    164a:	8f 2d       	mov	r24, r15
    164c:	7e 2d       	mov	r23, r14
    164e:	6d 2d       	mov	r22, r13
    1650:	8a e1       	ldi	r24, 0x1A	; 26
    1652:	0e 94 46 09 	call	0x128c	; 0x128c <MCP2515_reg_write>
			MCP2515_reg_write(MCP2515_RXF5EID0, filterID & 0xFF );
    1656:	6c 2d       	mov	r22, r12
    1658:	8b e1       	ldi	r24, 0x1B	; 27
    165a:	0e 94 46 09 	call	0x128c	; 0x128c <MCP2515_reg_write>
			
	}
		
}
    165e:	ff 90       	pop	r15
    1660:	ef 90       	pop	r14
    1662:	df 90       	pop	r13
    1664:	cf 90       	pop	r12
    1666:	08 95       	ret

00001668 <MCP2515_RXInit>:

uint8_t MCP2515_RXInit(int8_t mob, uint32_t IDmsk)	//write IDmsk 0 if you do not wish to use a mask, and this MOB will receive all messages
{
    1668:	cf 92       	push	r12
    166a:	df 92       	push	r13
    166c:	ef 92       	push	r14
    166e:	ff 92       	push	r15
	if (mob > 1)return 0;
    1670:	82 30       	cpi	r24, 0x02	; 2
    1672:	0c f0       	brlt	.+2      	; 0x1676 <MCP2515_RXInit+0xe>
    1674:	7d c0       	rjmp	.+250    	; 0x1770 <MCP2515_RXInit+0x108>
    1676:	6a 01       	movw	r12, r20
    1678:	7b 01       	movw	r14, r22
	switch(mob)
    167a:	88 23       	and	r24, r24
    167c:	19 f0       	breq	.+6      	; 0x1684 <MCP2515_RXInit+0x1c>
    167e:	81 30       	cpi	r24, 0x01	; 1
    1680:	d9 f1       	breq	.+118    	; 0x16f8 <MCP2515_RXInit+0x90>
    1682:	78 c0       	rjmp	.+240    	; 0x1774 <MCP2515_RXInit+0x10c>
	{
		case 0:
			MCP2515_reg_write(MCP2515_RXM0SIDH, (IDmsk>>21) & 0xFF);	//shift the 32 bit mask into the respective registers
    1684:	cb 01       	movw	r24, r22
    1686:	ba 01       	movw	r22, r20
    1688:	05 2e       	mov	r0, r21
    168a:	55 e1       	ldi	r21, 0x15	; 21
    168c:	96 95       	lsr	r25
    168e:	87 95       	ror	r24
    1690:	77 95       	ror	r23
    1692:	67 95       	ror	r22
    1694:	5a 95       	dec	r21
    1696:	d1 f7       	brne	.-12     	; 0x168c <MCP2515_RXInit+0x24>
    1698:	50 2d       	mov	r21, r0
    169a:	80 e2       	ldi	r24, 0x20	; 32
    169c:	0e 94 46 09 	call	0x128c	; 0x128c <MCP2515_reg_write>
			MCP2515_reg_write(MCP2515_RXM0SIDL, (((IDmsk>>13) & 224)| ((IDmsk>>16) & 3)));
    16a0:	d7 01       	movw	r26, r14
    16a2:	c6 01       	movw	r24, r12
    16a4:	07 2e       	mov	r0, r23
    16a6:	7d e0       	ldi	r23, 0x0D	; 13
    16a8:	b6 95       	lsr	r27
    16aa:	a7 95       	ror	r26
    16ac:	97 95       	ror	r25
    16ae:	87 95       	ror	r24
    16b0:	7a 95       	dec	r23
    16b2:	d1 f7       	brne	.-12     	; 0x16a8 <MCP2515_RXInit+0x40>
    16b4:	70 2d       	mov	r23, r0
    16b6:	68 2f       	mov	r22, r24
    16b8:	60 7e       	andi	r22, 0xE0	; 224
    16ba:	8e 2d       	mov	r24, r14
    16bc:	83 70       	andi	r24, 0x03	; 3
    16be:	68 2b       	or	r22, r24
    16c0:	81 e2       	ldi	r24, 0x21	; 33
    16c2:	0e 94 46 09 	call	0x128c	; 0x128c <MCP2515_reg_write>
			MCP2515_reg_write(MCP2515_RXM0EID8, (IDmsk>>8) & 0xFF );
    16c6:	99 27       	eor	r25, r25
    16c8:	8f 2d       	mov	r24, r15
    16ca:	7e 2d       	mov	r23, r14
    16cc:	6d 2d       	mov	r22, r13
    16ce:	82 e2       	ldi	r24, 0x22	; 34
    16d0:	0e 94 46 09 	call	0x128c	; 0x128c <MCP2515_reg_write>
			MCP2515_reg_write(MCP2515_RXM0EID0, IDmsk & 0xFF );
    16d4:	6c 2d       	mov	r22, r12
    16d6:	83 e2       	ldi	r24, 0x23	; 35
    16d8:	0e 94 46 09 	call	0x128c	; 0x128c <MCP2515_reg_write>
			if(IDmsk) MCP2515_reg_write(MCP2515_RXB0CTRL, 0b00000100);	//Enable reception using masks and filters. Enable BUKT bit, which enables RXB1 to be used if RXB0 is full
    16dc:	c1 14       	cp	r12, r1
    16de:	d1 04       	cpc	r13, r1
    16e0:	e1 04       	cpc	r14, r1
    16e2:	f1 04       	cpc	r15, r1
    16e4:	29 f0       	breq	.+10     	; 0x16f0 <MCP2515_RXInit+0x88>
    16e6:	64 e0       	ldi	r22, 0x04	; 4
    16e8:	80 e6       	ldi	r24, 0x60	; 96
    16ea:	0e 94 46 09 	call	0x128c	; 0x128c <MCP2515_reg_write>
    16ee:	04 c0       	rjmp	.+8      	; 0x16f8 <MCP2515_RXInit+0x90>
			else MCP2515_reg_write(MCP2515_RXB0CTRL, 0b01100100);		//Enable reception without masks and filters. 
    16f0:	64 e6       	ldi	r22, 0x64	; 100
    16f2:	80 e6       	ldi	r24, 0x60	; 96
    16f4:	0e 94 46 09 	call	0x128c	; 0x128c <MCP2515_reg_write>
		case 1:
			MCP2515_reg_write(MCP2515_RXM1SIDH, (IDmsk>>21) & 0xFF);	//shift the 32 bit mask into the respective registers
    16f8:	c7 01       	movw	r24, r14
    16fa:	b6 01       	movw	r22, r12
    16fc:	05 2e       	mov	r0, r21
    16fe:	55 e1       	ldi	r21, 0x15	; 21
    1700:	96 95       	lsr	r25
    1702:	87 95       	ror	r24
    1704:	77 95       	ror	r23
    1706:	67 95       	ror	r22
    1708:	5a 95       	dec	r21
    170a:	d1 f7       	brne	.-12     	; 0x1700 <MCP2515_RXInit+0x98>
    170c:	50 2d       	mov	r21, r0
    170e:	84 e2       	ldi	r24, 0x24	; 36
    1710:	0e 94 46 09 	call	0x128c	; 0x128c <MCP2515_reg_write>
			MCP2515_reg_write(MCP2515_RXM1SIDL, (((IDmsk>>13) & 224)| ((IDmsk>>16) & 3)));
    1714:	d7 01       	movw	r26, r14
    1716:	c6 01       	movw	r24, r12
    1718:	07 2e       	mov	r0, r23
    171a:	7d e0       	ldi	r23, 0x0D	; 13
    171c:	b6 95       	lsr	r27
    171e:	a7 95       	ror	r26
    1720:	97 95       	ror	r25
    1722:	87 95       	ror	r24
    1724:	7a 95       	dec	r23
    1726:	d1 f7       	brne	.-12     	; 0x171c <MCP2515_RXInit+0xb4>
    1728:	70 2d       	mov	r23, r0
    172a:	68 2f       	mov	r22, r24
    172c:	60 7e       	andi	r22, 0xE0	; 224
    172e:	8e 2d       	mov	r24, r14
    1730:	83 70       	andi	r24, 0x03	; 3
    1732:	68 2b       	or	r22, r24
    1734:	85 e2       	ldi	r24, 0x25	; 37
    1736:	0e 94 46 09 	call	0x128c	; 0x128c <MCP2515_reg_write>
			MCP2515_reg_write(MCP2515_RXM1EID8, (IDmsk>>8) & 0xFF );
    173a:	99 27       	eor	r25, r25
    173c:	8f 2d       	mov	r24, r15
    173e:	7e 2d       	mov	r23, r14
    1740:	6d 2d       	mov	r22, r13
    1742:	86 e2       	ldi	r24, 0x26	; 38
    1744:	0e 94 46 09 	call	0x128c	; 0x128c <MCP2515_reg_write>
			MCP2515_reg_write(MCP2515_RXM1EID0, IDmsk & 0xFF );
    1748:	6c 2d       	mov	r22, r12
    174a:	87 e2       	ldi	r24, 0x27	; 39
    174c:	0e 94 46 09 	call	0x128c	; 0x128c <MCP2515_reg_write>
			if(IDmsk) MCP2515_reg_write(MCP2515_RXB1CTRL, 0b00000000);	//Enable reception using masks and filters. 
    1750:	cd 28       	or	r12, r13
    1752:	ce 28       	or	r12, r14
    1754:	cf 28       	or	r12, r15
    1756:	31 f0       	breq	.+12     	; 0x1764 <MCP2515_RXInit+0xfc>
    1758:	60 e0       	ldi	r22, 0x00	; 0
    175a:	80 e7       	ldi	r24, 0x70	; 112
    175c:	0e 94 46 09 	call	0x128c	; 0x128c <MCP2515_reg_write>
			else MCP2515_reg_write(MCP2515_RXB1CTRL, 0b01100000);		//Enable reception without masks and filters.
	}	
	return 1;
    1760:	81 e0       	ldi	r24, 0x01	; 1
    1762:	09 c0       	rjmp	.+18     	; 0x1776 <MCP2515_RXInit+0x10e>
			MCP2515_reg_write(MCP2515_RXM1SIDH, (IDmsk>>21) & 0xFF);	//shift the 32 bit mask into the respective registers
			MCP2515_reg_write(MCP2515_RXM1SIDL, (((IDmsk>>13) & 224)| ((IDmsk>>16) & 3)));
			MCP2515_reg_write(MCP2515_RXM1EID8, (IDmsk>>8) & 0xFF );
			MCP2515_reg_write(MCP2515_RXM1EID0, IDmsk & 0xFF );
			if(IDmsk) MCP2515_reg_write(MCP2515_RXB1CTRL, 0b00000000);	//Enable reception using masks and filters. 
			else MCP2515_reg_write(MCP2515_RXB1CTRL, 0b01100000);		//Enable reception without masks and filters.
    1764:	60 e6       	ldi	r22, 0x60	; 96
    1766:	80 e7       	ldi	r24, 0x70	; 112
    1768:	0e 94 46 09 	call	0x128c	; 0x128c <MCP2515_reg_write>
	}	
	return 1;
    176c:	81 e0       	ldi	r24, 0x01	; 1
    176e:	03 c0       	rjmp	.+6      	; 0x1776 <MCP2515_RXInit+0x10e>
		
}

uint8_t MCP2515_RXInit(int8_t mob, uint32_t IDmsk)	//write IDmsk 0 if you do not wish to use a mask, and this MOB will receive all messages
{
	if (mob > 1)return 0;
    1770:	80 e0       	ldi	r24, 0x00	; 0
    1772:	01 c0       	rjmp	.+2      	; 0x1776 <MCP2515_RXInit+0x10e>
			MCP2515_reg_write(MCP2515_RXM1EID8, (IDmsk>>8) & 0xFF );
			MCP2515_reg_write(MCP2515_RXM1EID0, IDmsk & 0xFF );
			if(IDmsk) MCP2515_reg_write(MCP2515_RXB1CTRL, 0b00000000);	//Enable reception using masks and filters. 
			else MCP2515_reg_write(MCP2515_RXB1CTRL, 0b01100000);		//Enable reception without masks and filters.
	}	
	return 1;
    1774:	81 e0       	ldi	r24, 0x01	; 1
}
    1776:	ff 90       	pop	r15
    1778:	ef 90       	pop	r14
    177a:	df 90       	pop	r13
    177c:	cf 90       	pop	r12
    177e:	08 95       	ret

00001780 <MCP2515_TX>:

void MCP2515_TX(int8_t mob, uint8_t numBytes, uint8_t * data, uint32_t ID)
{
    1780:	8f 92       	push	r8
    1782:	9f 92       	push	r9
    1784:	af 92       	push	r10
    1786:	bf 92       	push	r11
    1788:	ef 92       	push	r14
    178a:	ff 92       	push	r15
    178c:	0f 93       	push	r16
    178e:	1f 93       	push	r17
    1790:	cf 93       	push	r28
    1792:	df 93       	push	r29
	if(mob == 0)return;						//no free mob or invalid mob
    1794:	88 23       	and	r24, r24
    1796:	09 f4       	brne	.+2      	; 0x179a <MCP2515_TX+0x1a>
    1798:	61 c0       	rjmp	.+194    	; 0x185c <MCP2515_TX+0xdc>
    179a:	48 01       	movw	r8, r16
    179c:	59 01       	movw	r10, r18
    179e:	c5 2f       	mov	r28, r21
    17a0:	e4 2e       	mov	r14, r20
    17a2:	f6 2e       	mov	r15, r22
    17a4:	d8 2f       	mov	r29, r24
	MCP2515_reg_write(mob, 0x03);			//we shall set this to the highest priority so that it sends it immediately.
    17a6:	63 e0       	ldi	r22, 0x03	; 3
    17a8:	0e 94 46 09 	call	0x128c	; 0x128c <MCP2515_reg_write>
	MCP2515_reg_write(mob+1, (ID>>21) & 0xFF);	//shift the ID data to fill the respective MCP registers
    17ac:	c5 01       	movw	r24, r10
    17ae:	b4 01       	movw	r22, r8
    17b0:	05 2e       	mov	r0, r21
    17b2:	55 e1       	ldi	r21, 0x15	; 21
    17b4:	96 95       	lsr	r25
    17b6:	87 95       	ror	r24
    17b8:	77 95       	ror	r23
    17ba:	67 95       	ror	r22
    17bc:	5a 95       	dec	r21
    17be:	d1 f7       	brne	.-12     	; 0x17b4 <MCP2515_TX+0x34>
    17c0:	50 2d       	mov	r21, r0
    17c2:	81 e0       	ldi	r24, 0x01	; 1
    17c4:	8d 0f       	add	r24, r29
    17c6:	0e 94 46 09 	call	0x128c	; 0x128c <MCP2515_reg_write>
	MCP2515_reg_write(mob+2, (((ID>>13) & 224)| ((ID>>16) & 3) | ((1<<3) & 0xFF)));	//set the EXIDE bit, which makes it extended (CAN 2.0B)
    17ca:	d5 01       	movw	r26, r10
    17cc:	c4 01       	movw	r24, r8
    17ce:	07 2e       	mov	r0, r23
    17d0:	7d e0       	ldi	r23, 0x0D	; 13
    17d2:	b6 95       	lsr	r27
    17d4:	a7 95       	ror	r26
    17d6:	97 95       	ror	r25
    17d8:	87 95       	ror	r24
    17da:	7a 95       	dec	r23
    17dc:	d1 f7       	brne	.-12     	; 0x17d2 <MCP2515_TX+0x52>
    17de:	70 2d       	mov	r23, r0
    17e0:	68 2f       	mov	r22, r24
    17e2:	60 7e       	andi	r22, 0xE0	; 224
    17e4:	8a 2d       	mov	r24, r10
    17e6:	83 70       	andi	r24, 0x03	; 3
    17e8:	68 2b       	or	r22, r24
    17ea:	68 60       	ori	r22, 0x08	; 8
    17ec:	82 e0       	ldi	r24, 0x02	; 2
    17ee:	8d 0f       	add	r24, r29
    17f0:	0e 94 46 09 	call	0x128c	; 0x128c <MCP2515_reg_write>
	MCP2515_reg_write(mob+3, (ID>>8) & 0xFF );
    17f4:	99 27       	eor	r25, r25
    17f6:	8b 2d       	mov	r24, r11
    17f8:	7a 2d       	mov	r23, r10
    17fa:	69 2d       	mov	r22, r9
    17fc:	83 e0       	ldi	r24, 0x03	; 3
    17fe:	8d 0f       	add	r24, r29
    1800:	0e 94 46 09 	call	0x128c	; 0x128c <MCP2515_reg_write>
	MCP2515_reg_write(mob+4, ID & 0xFF );
    1804:	68 2d       	mov	r22, r8
    1806:	84 e0       	ldi	r24, 0x04	; 4
    1808:	8d 0f       	add	r24, r29
    180a:	0e 94 46 09 	call	0x128c	; 0x128c <MCP2515_reg_write>
	MCP2515_reg_write(mob+5, numBytes);		//set how many bytes we wish to send
    180e:	6f 2d       	mov	r22, r15
    1810:	85 e0       	ldi	r24, 0x05	; 5
    1812:	8d 0f       	add	r24, r29
    1814:	0e 94 46 09 	call	0x128c	; 0x128c <MCP2515_reg_write>
	//MCP2515_reg_write(mob+2, (1<<3));
	//MCP2515_reg_write(mob+3, 0);
	//MCP2515_reg_write(mob+4, 0);
	//MCP2515_reg_write(mob+5, 0);
	
	for (uint8_t byteCount = 0; byteCount < numBytes; byteCount++)
    1818:	ff 20       	and	r15, r15
    181a:	89 f0       	breq	.+34     	; 0x183e <MCP2515_TX+0xbe>
    181c:	0e 2d       	mov	r16, r14
    181e:	1c 2f       	mov	r17, r28
    1820:	c6 e0       	ldi	r28, 0x06	; 6
    1822:	cd 0f       	add	r28, r29
    1824:	86 e0       	ldi	r24, 0x06	; 6
    1826:	8f 0d       	add	r24, r15
    1828:	f8 2e       	mov	r15, r24
    182a:	fd 0e       	add	r15, r29
	{
		MCP2515_reg_write(mob+6+byteCount, *(data+byteCount));	//fill the data bytes register.
    182c:	f8 01       	movw	r30, r16
    182e:	61 91       	ld	r22, Z+
    1830:	8f 01       	movw	r16, r30
    1832:	8c 2f       	mov	r24, r28
    1834:	0e 94 46 09 	call	0x128c	; 0x128c <MCP2515_reg_write>
    1838:	cf 5f       	subi	r28, 0xFF	; 255
	//MCP2515_reg_write(mob+2, (1<<3));
	//MCP2515_reg_write(mob+3, 0);
	//MCP2515_reg_write(mob+4, 0);
	//MCP2515_reg_write(mob+5, 0);
	
	for (uint8_t byteCount = 0; byteCount < numBytes; byteCount++)
    183a:	cf 11       	cpse	r28, r15
    183c:	f7 cf       	rjmp	.-18     	; 0x182c <MCP2515_TX+0xac>
	{
		MCP2515_reg_write(mob+6+byteCount, *(data+byteCount));	//fill the data bytes register.
	}
	MCP2515_instruction(128|(1<<((mob>>4) - 3)));		//creates an instruction that matches the mob that is chosen.
    183e:	d5 95       	asr	r29
    1840:	d5 95       	asr	r29
    1842:	d5 95       	asr	r29
    1844:	d5 95       	asr	r29
    1846:	d3 50       	subi	r29, 0x03	; 3
    1848:	81 e0       	ldi	r24, 0x01	; 1
    184a:	90 e0       	ldi	r25, 0x00	; 0
    184c:	02 c0       	rjmp	.+4      	; 0x1852 <MCP2515_TX+0xd2>
    184e:	88 0f       	add	r24, r24
    1850:	99 1f       	adc	r25, r25
    1852:	da 95       	dec	r29
    1854:	e2 f7       	brpl	.-8      	; 0x184e <MCP2515_TX+0xce>
    1856:	80 68       	ori	r24, 0x80	; 128
    1858:	0e 94 58 09 	call	0x12b0	; 0x12b0 <MCP2515_instruction>
	//PORTC &= ~(1<<PINC7);		//Drop the TX
	//_delay_us(50);
	//PORTC |= (1<<PINC7);		
}
    185c:	df 91       	pop	r29
    185e:	cf 91       	pop	r28
    1860:	1f 91       	pop	r17
    1862:	0f 91       	pop	r16
    1864:	ff 90       	pop	r15
    1866:	ef 90       	pop	r14
    1868:	bf 90       	pop	r11
    186a:	af 90       	pop	r10
    186c:	9f 90       	pop	r9
    186e:	8f 90       	pop	r8
    1870:	08 95       	ret

00001872 <SPI_send_byte>:
#include "SPI.h"

uint8_t SPI_send_byte(uint8_t c)
{
	SPDR = c;					//write data to the transmission register. Writing to this initiates transmission.
    1872:	8e bd       	out	0x2e, r24	; 46
	while(!(SPSR & (1<<SPIF)));
    1874:	0d b4       	in	r0, 0x2d	; 45
    1876:	07 fe       	sbrs	r0, 7
    1878:	fd cf       	rjmp	.-6      	; 0x1874 <SPI_send_byte+0x2>
	return SPDR;				//return any data that was shifted into this register upon transmission.
    187a:	8e b5       	in	r24, 0x2e	; 46
}
    187c:	08 95       	ret

0000187e <SPI_init>:

void SPI_init()
{
	MCUCR &= ~(1<<SPIPS);		//make sure we are getting spi not on the _A spi pins.
    187e:	85 b7       	in	r24, 0x35	; 53
    1880:	8f 77       	andi	r24, 0x7F	; 127
    1882:	85 bf       	out	0x35, r24	; 53
	SPCR = (0<<SPIE)|(1<<SPE)|(0<<DORD)|(1<<MSTR)|(0<<CPOL)|(0<<CPHA)|(1<<SPR0)|(0<<SPR1);  //set interrupt, enable SPI, MSB mode, set as master, low is idle, read on leading edge, Set to speed(fosc/64) SPR0=1, SPR1=0
    1884:	81 e5       	ldi	r24, 0x51	; 81
    1886:	8c bd       	out	0x2c, r24	; 44
	SPSR = (1<<SPI2X);	//set whether we want 2x speed or not (1=2x speed).
    1888:	81 e0       	ldi	r24, 0x01	; 1
    188a:	8d bd       	out	0x2d, r24	; 45
	SPDR = 0x00;		//ensure data register has nothing in it
    188c:	1e bc       	out	0x2e, r1	; 46
    188e:	08 95       	ret

00001890 <__udivmodsi4>:
    1890:	a1 e2       	ldi	r26, 0x21	; 33
    1892:	1a 2e       	mov	r1, r26
    1894:	aa 1b       	sub	r26, r26
    1896:	bb 1b       	sub	r27, r27
    1898:	fd 01       	movw	r30, r26
    189a:	0d c0       	rjmp	.+26     	; 0x18b6 <__udivmodsi4_ep>

0000189c <__udivmodsi4_loop>:
    189c:	aa 1f       	adc	r26, r26
    189e:	bb 1f       	adc	r27, r27
    18a0:	ee 1f       	adc	r30, r30
    18a2:	ff 1f       	adc	r31, r31
    18a4:	a2 17       	cp	r26, r18
    18a6:	b3 07       	cpc	r27, r19
    18a8:	e4 07       	cpc	r30, r20
    18aa:	f5 07       	cpc	r31, r21
    18ac:	20 f0       	brcs	.+8      	; 0x18b6 <__udivmodsi4_ep>
    18ae:	a2 1b       	sub	r26, r18
    18b0:	b3 0b       	sbc	r27, r19
    18b2:	e4 0b       	sbc	r30, r20
    18b4:	f5 0b       	sbc	r31, r21

000018b6 <__udivmodsi4_ep>:
    18b6:	66 1f       	adc	r22, r22
    18b8:	77 1f       	adc	r23, r23
    18ba:	88 1f       	adc	r24, r24
    18bc:	99 1f       	adc	r25, r25
    18be:	1a 94       	dec	r1
    18c0:	69 f7       	brne	.-38     	; 0x189c <__udivmodsi4_loop>
    18c2:	60 95       	com	r22
    18c4:	70 95       	com	r23
    18c6:	80 95       	com	r24
    18c8:	90 95       	com	r25
    18ca:	9b 01       	movw	r18, r22
    18cc:	ac 01       	movw	r20, r24
    18ce:	bd 01       	movw	r22, r26
    18d0:	cf 01       	movw	r24, r30
    18d2:	08 95       	ret

000018d4 <eeprom_read_word>:
    18d4:	a8 e1       	ldi	r26, 0x18	; 24
    18d6:	b0 e0       	ldi	r27, 0x00	; 0
    18d8:	42 e0       	ldi	r20, 0x02	; 2
    18da:	50 e0       	ldi	r21, 0x00	; 0
    18dc:	0c 94 77 0c 	jmp	0x18ee	; 0x18ee <eeprom_read_blraw>

000018e0 <eeprom_write_word>:
    18e0:	0e 94 85 0c 	call	0x190a	; 0x190a <eeprom_write_byte>
    18e4:	27 2f       	mov	r18, r23
    18e6:	0c 94 86 0c 	jmp	0x190c	; 0x190c <eeprom_write_r18>

000018ea <eeprom_read_block>:
    18ea:	dc 01       	movw	r26, r24
    18ec:	cb 01       	movw	r24, r22

000018ee <eeprom_read_blraw>:
    18ee:	fc 01       	movw	r30, r24
    18f0:	f9 99       	sbic	0x1f, 1	; 31
    18f2:	fe cf       	rjmp	.-4      	; 0x18f0 <eeprom_read_blraw+0x2>
    18f4:	06 c0       	rjmp	.+12     	; 0x1902 <eeprom_read_blraw+0x14>
    18f6:	f2 bd       	out	0x22, r31	; 34
    18f8:	e1 bd       	out	0x21, r30	; 33
    18fa:	f8 9a       	sbi	0x1f, 0	; 31
    18fc:	31 96       	adiw	r30, 0x01	; 1
    18fe:	00 b4       	in	r0, 0x20	; 32
    1900:	0d 92       	st	X+, r0
    1902:	41 50       	subi	r20, 0x01	; 1
    1904:	50 40       	sbci	r21, 0x00	; 0
    1906:	b8 f7       	brcc	.-18     	; 0x18f6 <eeprom_read_blraw+0x8>
    1908:	08 95       	ret

0000190a <eeprom_write_byte>:
    190a:	26 2f       	mov	r18, r22

0000190c <eeprom_write_r18>:
    190c:	f9 99       	sbic	0x1f, 1	; 31
    190e:	fe cf       	rjmp	.-4      	; 0x190c <eeprom_write_r18>
    1910:	1f ba       	out	0x1f, r1	; 31
    1912:	92 bd       	out	0x22, r25	; 34
    1914:	81 bd       	out	0x21, r24	; 33
    1916:	20 bd       	out	0x20, r18	; 32
    1918:	0f b6       	in	r0, 0x3f	; 63
    191a:	f8 94       	cli
    191c:	fa 9a       	sbi	0x1f, 2	; 31
    191e:	f9 9a       	sbi	0x1f, 1	; 31
    1920:	0f be       	out	0x3f, r0	; 63
    1922:	01 96       	adiw	r24, 0x01	; 1
    1924:	08 95       	ret

00001926 <_exit>:
    1926:	f8 94       	cli

00001928 <__stop_program>:
    1928:	ff cf       	rjmp	.-2      	; 0x1928 <__stop_program>
